	.section	__TEXT,__text,regular,pure_instructions
	.build_version macos, 10, 15, 4	sdk_version 10, 15, 4
	.globl	__Z6as_cgpPc            ## -- Begin function _Z6as_cgpPc
	.p2align	4, 0x90
__Z6as_cgpPc:                           ## @_Z6as_cgpPc
Lfunc_begin0:
	.cfi_startproc
	.cfi_personality 155, ___gxx_personality_v0
	.cfi_lsda 16, Lexception0
## %bb.0:
	pushq	%rbp
	.cfi_def_cfa_offset 16
	.cfi_offset %rbp, -16
	movq	%rsp, %rbp
	.cfi_def_cfa_register %rbp
	subq	$112, %rsp
	movq	%rdi, %rax
	movq	%rsi, -8(%rbp)
	movl	$0, -12(%rbp)
	leaq	-40(%rbp), %rcx
	movq	%rdi, -88(%rbp)         ## 8-byte Spill
	movq	%rcx, %rdi
	movq	%rax, -96(%rbp)         ## 8-byte Spill
	callq	__ZNSt3__112basic_stringIcNS_11char_traitsIcEENS_9allocatorIcEEEC1Ev
LBB0_1:                                 ## =>This Inner Loop Header: Depth=1
	movq	-8(%rbp), %rax
	movslq	-12(%rbp), %rcx
	movsbl	(%rax,%rcx), %edx
	cmpl	$0, %edx
	je	LBB0_10
## %bb.2:                               ##   in Loop: Header=BB0_1 Depth=1
	movq	-8(%rbp), %rax
	movslq	-12(%rbp), %rcx
	movsbl	(%rax,%rcx), %edx
	cmpl	$46, %edx
	jne	LBB0_4
## %bb.3:                               ##   in Loop: Header=BB0_1 Depth=1
	movb	$1, -13(%rbp)
	jmp	LBB0_9
LBB0_4:                                 ##   in Loop: Header=BB0_1 Depth=1
	testb	$1, -13(%rbp)
	je	LBB0_8
## %bb.5:                               ##   in Loop: Header=BB0_1 Depth=1
	movq	-8(%rbp), %rax
	movslq	-12(%rbp), %rcx
	movsbl	(%rax,%rcx), %esi
Ltmp9:
	leaq	-40(%rbp), %rdi
	callq	__ZNSt3__112basic_stringIcNS_11char_traitsIcEENS_9allocatorIcEEE9push_backEc
Ltmp10:
	jmp	LBB0_6
LBB0_6:                                 ##   in Loop: Header=BB0_1 Depth=1
	jmp	LBB0_8
LBB0_7:
Ltmp11:
                                        ## kill: def $edx killed $edx killed $rdx
	movq	%rax, -48(%rbp)
	movl	%edx, -52(%rbp)
	jmp	LBB0_19
LBB0_8:                                 ##   in Loop: Header=BB0_1 Depth=1
	jmp	LBB0_9
LBB0_9:                                 ##   in Loop: Header=BB0_1 Depth=1
	movl	-12(%rbp), %eax
	addl	$1, %eax
	movl	%eax, -12(%rbp)
	jmp	LBB0_1
LBB0_10:
	leaq	-40(%rbp), %rdi
	callq	__ZNKSt3__112basic_stringIcNS_11char_traitsIcEENS_9allocatorIcEEE5c_strEv
Ltmp0:
	leaq	L_.str(%rip), %rsi
	movq	%rax, %rdi
	callq	_strcmp
Ltmp1:
	movl	%eax, -100(%rbp)        ## 4-byte Spill
	jmp	LBB0_11
LBB0_11:
	movl	-100(%rbp), %eax        ## 4-byte Reload
	cmpl	$0, %eax
	jne	LBB0_14
## %bb.12:
	movq	-8(%rbp), %rsi
Ltmp7:
	movq	-88(%rbp), %rdi         ## 8-byte Reload
	callq	__ZNSt3__112basic_stringIcNS_11char_traitsIcEENS_9allocatorIcEEEC1IDnEEPKc
Ltmp8:
	jmp	LBB0_13
LBB0_13:
	movl	$1, -56(%rbp)
	jmp	LBB0_18
LBB0_14:
	movq	-8(%rbp), %rsi
Ltmp2:
	leaq	-80(%rbp), %rdi
	callq	__ZNSt3__112basic_stringIcNS_11char_traitsIcEENS_9allocatorIcEEEC1IDnEEPKc
Ltmp3:
	jmp	LBB0_15
LBB0_15:
Ltmp4:
	leaq	L_.str.1(%rip), %rdx
	leaq	-80(%rbp), %rsi
	movq	-88(%rbp), %rdi         ## 8-byte Reload
	callq	__ZNSt3__1plIcNS_11char_traitsIcEENS_9allocatorIcEEEENS_12basic_stringIT_T0_T1_EEOS9_PKS6_
Ltmp5:
	jmp	LBB0_16
LBB0_16:
	leaq	-80(%rbp), %rdi
	callq	__ZNSt3__112basic_stringIcNS_11char_traitsIcEENS_9allocatorIcEEED1Ev
	movl	$1, -56(%rbp)
	jmp	LBB0_18
LBB0_17:
Ltmp6:
                                        ## kill: def $edx killed $edx killed $rdx
	movq	%rax, -48(%rbp)
	movl	%edx, -52(%rbp)
	leaq	-80(%rbp), %rdi
	callq	__ZNSt3__112basic_stringIcNS_11char_traitsIcEENS_9allocatorIcEEED1Ev
	jmp	LBB0_19
LBB0_18:
	leaq	-40(%rbp), %rdi
	callq	__ZNSt3__112basic_stringIcNS_11char_traitsIcEENS_9allocatorIcEEED1Ev
	movq	-96(%rbp), %rax         ## 8-byte Reload
	addq	$112, %rsp
	popq	%rbp
	retq
LBB0_19:
	leaq	-40(%rbp), %rdi
	callq	__ZNSt3__112basic_stringIcNS_11char_traitsIcEENS_9allocatorIcEEED1Ev
## %bb.20:
	movq	-48(%rbp), %rdi
	callq	__Unwind_Resume
	ud2
Lfunc_end0:
	.cfi_endproc
	.section	__TEXT,__gcc_except_tab
	.p2align	2
GCC_except_table0:
Lexception0:
	.byte	255                     ## @LPStart Encoding = omit
	.byte	255                     ## @TType Encoding = omit
	.byte	1                       ## Call site Encoding = uleb128
	.uleb128 Lcst_end0-Lcst_begin0
Lcst_begin0:
	.uleb128 Ltmp9-Lfunc_begin0     ## >> Call Site 1 <<
	.uleb128 Ltmp3-Ltmp9            ##   Call between Ltmp9 and Ltmp3
	.uleb128 Ltmp11-Lfunc_begin0    ##     jumps to Ltmp11
	.byte	0                       ##   On action: cleanup
	.uleb128 Ltmp4-Lfunc_begin0     ## >> Call Site 2 <<
	.uleb128 Ltmp5-Ltmp4            ##   Call between Ltmp4 and Ltmp5
	.uleb128 Ltmp6-Lfunc_begin0     ##     jumps to Ltmp6
	.byte	0                       ##   On action: cleanup
	.uleb128 Ltmp5-Lfunc_begin0     ## >> Call Site 3 <<
	.uleb128 Lfunc_end0-Ltmp5       ##   Call between Ltmp5 and Lfunc_end0
	.byte	0                       ##     has no landing pad
	.byte	0                       ##   On action: cleanup
Lcst_end0:
	.p2align	2
                                        ## -- End function
	.section	__TEXT,__text,regular,pure_instructions
	.p2align	4, 0x90         ## -- Begin function _ZNSt3__112basic_stringIcNS_11char_traitsIcEENS_9allocatorIcEEEC1Ev
__ZNSt3__112basic_stringIcNS_11char_traitsIcEENS_9allocatorIcEEEC1Ev: ## @_ZNSt3__112basic_stringIcNS_11char_traitsIcEENS_9allocatorIcEEEC1Ev
	.cfi_startproc
## %bb.0:
	pushq	%rbp
	.cfi_def_cfa_offset 16
	.cfi_offset %rbp, -16
	movq	%rsp, %rbp
	.cfi_def_cfa_register %rbp
	subq	$16, %rsp
	movq	%rdi, -8(%rbp)
	movq	-8(%rbp), %rdi
	callq	__ZNSt3__112basic_stringIcNS_11char_traitsIcEENS_9allocatorIcEEEC2Ev
	addq	$16, %rsp
	popq	%rbp
	retq
	.cfi_endproc
                                        ## -- End function
	.p2align	4, 0x90         ## -- Begin function _ZNKSt3__112basic_stringIcNS_11char_traitsIcEENS_9allocatorIcEEE5c_strEv
__ZNKSt3__112basic_stringIcNS_11char_traitsIcEENS_9allocatorIcEEE5c_strEv: ## @_ZNKSt3__112basic_stringIcNS_11char_traitsIcEENS_9allocatorIcEEE5c_strEv
	.cfi_startproc
## %bb.0:
	pushq	%rbp
	.cfi_def_cfa_offset 16
	.cfi_offset %rbp, -16
	movq	%rsp, %rbp
	.cfi_def_cfa_register %rbp
	subq	$16, %rsp
	movq	%rdi, -8(%rbp)
	movq	-8(%rbp), %rdi
	callq	__ZNKSt3__112basic_stringIcNS_11char_traitsIcEENS_9allocatorIcEEE4dataEv
	addq	$16, %rsp
	popq	%rbp
	retq
	.cfi_endproc
                                        ## -- End function
	.p2align	4, 0x90         ## -- Begin function _ZNSt3__112basic_stringIcNS_11char_traitsIcEENS_9allocatorIcEEEC1IDnEEPKc
__ZNSt3__112basic_stringIcNS_11char_traitsIcEENS_9allocatorIcEEEC1IDnEEPKc: ## @_ZNSt3__112basic_stringIcNS_11char_traitsIcEENS_9allocatorIcEEEC1IDnEEPKc
	.cfi_startproc
## %bb.0:
	pushq	%rbp
	.cfi_def_cfa_offset 16
	.cfi_offset %rbp, -16
	movq	%rsp, %rbp
	.cfi_def_cfa_register %rbp
	subq	$16, %rsp
	movq	%rdi, -8(%rbp)
	movq	%rsi, -16(%rbp)
	movq	-8(%rbp), %rdi
	movq	-16(%rbp), %rsi
	callq	__ZNSt3__112basic_stringIcNS_11char_traitsIcEENS_9allocatorIcEEEC2IDnEEPKc
	addq	$16, %rsp
	popq	%rbp
	retq
	.cfi_endproc
                                        ## -- End function
	.p2align	4, 0x90         ## -- Begin function _ZNSt3__1plIcNS_11char_traitsIcEENS_9allocatorIcEEEENS_12basic_stringIT_T0_T1_EEOS9_PKS6_
__ZNSt3__1plIcNS_11char_traitsIcEENS_9allocatorIcEEEENS_12basic_stringIT_T0_T1_EEOS9_PKS6_: ## @_ZNSt3__1plIcNS_11char_traitsIcEENS_9allocatorIcEEEENS_12basic_stringIT_T0_T1_EEOS9_PKS6_
	.cfi_startproc
## %bb.0:
	pushq	%rbp
	.cfi_def_cfa_offset 16
	.cfi_offset %rbp, -16
	movq	%rsp, %rbp
	.cfi_def_cfa_register %rbp
	subq	$32, %rsp
	movq	%rdi, %rax
	movq	%rsi, -8(%rbp)
	movq	%rdx, -16(%rbp)
	movq	-8(%rbp), %rcx
	movq	-16(%rbp), %rsi
	movq	%rdi, -24(%rbp)         ## 8-byte Spill
	movq	%rcx, %rdi
	movq	%rax, -32(%rbp)         ## 8-byte Spill
	callq	__ZNSt3__112basic_stringIcNS_11char_traitsIcEENS_9allocatorIcEEE6appendEPKc
	movq	%rax, %rdi
	callq	__ZNSt3__1L4moveIRNS_12basic_stringIcNS_11char_traitsIcEENS_9allocatorIcEEEEEEONS_16remove_referenceIT_E4typeEOS9_
	movq	-24(%rbp), %rdi         ## 8-byte Reload
	movq	%rax, %rsi
	callq	__ZNSt3__112basic_stringIcNS_11char_traitsIcEENS_9allocatorIcEEEC1EOS5_
	movq	-32(%rbp), %rax         ## 8-byte Reload
	addq	$32, %rsp
	popq	%rbp
	retq
	.cfi_endproc
                                        ## -- End function
	.globl	__Z6existsRKNSt3__112basic_stringIcNS_11char_traitsIcEENS_9allocatorIcEEEE ## -- Begin function _Z6existsRKNSt3__112basic_stringIcNS_11char_traitsIcEENS_9allocatorIcEEEE
	.p2align	4, 0x90
__Z6existsRKNSt3__112basic_stringIcNS_11char_traitsIcEENS_9allocatorIcEEEE: ## @_Z6existsRKNSt3__112basic_stringIcNS_11char_traitsIcEENS_9allocatorIcEEEE
	.cfi_startproc
## %bb.0:
	pushq	%rbp
	.cfi_def_cfa_offset 16
	.cfi_offset %rbp, -16
	movq	%rsp, %rbp
	.cfi_def_cfa_register %rbp
	subq	$32, %rsp
	movq	%rdi, -16(%rbp)
	movq	-16(%rbp), %rdi
	callq	__ZNKSt3__112basic_stringIcNS_11char_traitsIcEENS_9allocatorIcEEE5c_strEv
	movq	%rax, %rdi
	leaq	L_.str.2(%rip), %rsi
	callq	_fopen
	movq	%rax, -24(%rbp)
	cmpq	$0, -24(%rbp)
	je	LBB5_2
## %bb.1:
	movq	-24(%rbp), %rdi
	callq	_fclose
	movb	$1, -1(%rbp)
	jmp	LBB5_3
LBB5_2:
	movb	$0, -1(%rbp)
LBB5_3:
	movb	-1(%rbp), %al
	andb	$1, %al
	movzbl	%al, %eax
	addq	$32, %rsp
	popq	%rbp
	retq
	.cfi_endproc
                                        ## -- End function
	.globl	__Z5splitRKNSt3__112basic_stringIcNS_11char_traitsIcEENS_9allocatorIcEEEERNS_6vectorIS5_NS3_IS5_EEEEc ## -- Begin function _Z5splitRKNSt3__112basic_stringIcNS_11char_traitsIcEENS_9allocatorIcEEEERNS_6vectorIS5_NS3_IS5_EEEEc
	.p2align	4, 0x90
__Z5splitRKNSt3__112basic_stringIcNS_11char_traitsIcEENS_9allocatorIcEEEERNS_6vectorIS5_NS3_IS5_EEEEc: ## @_Z5splitRKNSt3__112basic_stringIcNS_11char_traitsIcEENS_9allocatorIcEEEERNS_6vectorIS5_NS3_IS5_EEEEc
Lfunc_begin1:
	.cfi_startproc
	.cfi_personality 155, ___gxx_personality_v0
	.cfi_lsda 16, Lexception1
## %bb.0:
	pushq	%rbp
	.cfi_def_cfa_offset 16
	.cfi_offset %rbp, -16
	movq	%rsp, %rbp
	.cfi_def_cfa_register %rbp
	subq	$160, %rsp
                                        ## kill: def $dl killed $dl killed $edx
	xorl	%eax, %eax
	movl	%eax, %ecx
	movq	%rdi, -8(%rbp)
	movq	%rsi, -16(%rbp)
	movb	%dl, -17(%rbp)
	movq	-8(%rbp), %rdi
	movsbl	-17(%rbp), %esi
	movq	%rcx, %rdx
	callq	__ZNKSt3__112basic_stringIcNS_11char_traitsIcEENS_9allocatorIcEEE4findEcm
	movq	%rax, -32(%rbp)
	movq	$0, -40(%rbp)
	movq	-16(%rbp), %rdi
	callq	__ZNSt3__16vectorINS_12basic_stringIcNS_11char_traitsIcEENS_9allocatorIcEEEENS4_IS6_EEE5clearEv
LBB6_1:                                 ## =>This Inner Loop Header: Depth=1
	cmpq	$-1, -32(%rbp)
	je	LBB6_5
## %bb.2:                               ##   in Loop: Header=BB6_1 Depth=1
	movq	-16(%rbp), %rdi
	movq	-8(%rbp), %rsi
	movq	-40(%rbp), %rax
	movq	-32(%rbp), %rcx
	subq	%rax, %rcx
	leaq	-64(%rbp), %rdx
	movq	%rdi, -120(%rbp)        ## 8-byte Spill
	movq	%rdx, %rdi
	movq	%rdx, -128(%rbp)        ## 8-byte Spill
	movq	%rax, %rdx
	callq	__ZNKSt3__112basic_stringIcNS_11char_traitsIcEENS_9allocatorIcEEE6substrEmm
Ltmp15:
	movq	-120(%rbp), %rdi        ## 8-byte Reload
	movq	-128(%rbp), %rsi        ## 8-byte Reload
	callq	__ZNSt3__16vectorINS_12basic_stringIcNS_11char_traitsIcEENS_9allocatorIcEEEENS4_IS6_EEE9push_backEOS6_
Ltmp16:
	jmp	LBB6_3
LBB6_3:                                 ##   in Loop: Header=BB6_1 Depth=1
	leaq	-64(%rbp), %rdi
	callq	__ZNSt3__112basic_stringIcNS_11char_traitsIcEENS_9allocatorIcEEED1Ev
	movq	-32(%rbp), %rax
	addq	$1, %rax
	movq	%rax, -40(%rbp)
	movq	-8(%rbp), %rdi
	movb	-17(%rbp), %cl
	movq	-40(%rbp), %rdx
	movsbl	%cl, %esi
	callq	__ZNKSt3__112basic_stringIcNS_11char_traitsIcEENS_9allocatorIcEEE4findEcm
	movq	%rax, -32(%rbp)
	jmp	LBB6_1
LBB6_4:
Ltmp17:
                                        ## kill: def $edx killed $edx killed $rdx
	movq	%rax, -72(%rbp)
	movl	%edx, -76(%rbp)
	leaq	-64(%rbp), %rdi
	callq	__ZNSt3__112basic_stringIcNS_11char_traitsIcEENS_9allocatorIcEEED1Ev
	jmp	LBB6_8
LBB6_5:
	movq	-16(%rbp), %rdi
	movq	-8(%rbp), %rax
	movq	-40(%rbp), %rdx
	movq	%rdi, -136(%rbp)        ## 8-byte Spill
	movq	%rax, %rdi
	movq	%rax, -144(%rbp)        ## 8-byte Spill
	movq	%rdx, -152(%rbp)        ## 8-byte Spill
	callq	__ZNKSt3__112basic_stringIcNS_11char_traitsIcEENS_9allocatorIcEEE4sizeEv
	movq	%rax, -112(%rbp)
	leaq	-32(%rbp), %rdi
	leaq	-112(%rbp), %rsi
	callq	__ZNSt3__1L3minImEERKT_S3_S3_
	movq	(%rax), %rax
	movq	-40(%rbp), %rcx
	subq	%rcx, %rax
	incq	%rax
	leaq	-104(%rbp), %rcx
	movq	%rcx, %rdi
	movq	-144(%rbp), %rsi        ## 8-byte Reload
	movq	-152(%rbp), %rdx        ## 8-byte Reload
	movq	%rcx, -160(%rbp)        ## 8-byte Spill
	movq	%rax, %rcx
	callq	__ZNKSt3__112basic_stringIcNS_11char_traitsIcEENS_9allocatorIcEEE6substrEmm
Ltmp12:
	movq	-136(%rbp), %rdi        ## 8-byte Reload
	movq	-160(%rbp), %rsi        ## 8-byte Reload
	callq	__ZNSt3__16vectorINS_12basic_stringIcNS_11char_traitsIcEENS_9allocatorIcEEEENS4_IS6_EEE9push_backEOS6_
Ltmp13:
	jmp	LBB6_6
LBB6_6:
	leaq	-104(%rbp), %rdi
	callq	__ZNSt3__112basic_stringIcNS_11char_traitsIcEENS_9allocatorIcEEED1Ev
	movq	-16(%rbp), %rdi
	callq	__ZNKSt3__16vectorINS_12basic_stringIcNS_11char_traitsIcEENS_9allocatorIcEEEENS4_IS6_EEE4sizeEv
	addq	$160, %rsp
	popq	%rbp
	retq
LBB6_7:
Ltmp14:
                                        ## kill: def $edx killed $edx killed $rdx
	movq	%rax, -72(%rbp)
	movl	%edx, -76(%rbp)
	leaq	-104(%rbp), %rdi
	callq	__ZNSt3__112basic_stringIcNS_11char_traitsIcEENS_9allocatorIcEEED1Ev
LBB6_8:
	movq	-72(%rbp), %rdi
	callq	__Unwind_Resume
	ud2
Lfunc_end1:
	.cfi_endproc
	.section	__TEXT,__gcc_except_tab
	.p2align	2
GCC_except_table6:
Lexception1:
	.byte	255                     ## @LPStart Encoding = omit
	.byte	255                     ## @TType Encoding = omit
	.byte	1                       ## Call site Encoding = uleb128
	.uleb128 Lcst_end1-Lcst_begin1
Lcst_begin1:
	.uleb128 Lfunc_begin1-Lfunc_begin1 ## >> Call Site 1 <<
	.uleb128 Ltmp15-Lfunc_begin1    ##   Call between Lfunc_begin1 and Ltmp15
	.byte	0                       ##     has no landing pad
	.byte	0                       ##   On action: cleanup
	.uleb128 Ltmp15-Lfunc_begin1    ## >> Call Site 2 <<
	.uleb128 Ltmp16-Ltmp15          ##   Call between Ltmp15 and Ltmp16
	.uleb128 Ltmp17-Lfunc_begin1    ##     jumps to Ltmp17
	.byte	0                       ##   On action: cleanup
	.uleb128 Ltmp16-Lfunc_begin1    ## >> Call Site 3 <<
	.uleb128 Ltmp12-Ltmp16          ##   Call between Ltmp16 and Ltmp12
	.byte	0                       ##     has no landing pad
	.byte	0                       ##   On action: cleanup
	.uleb128 Ltmp12-Lfunc_begin1    ## >> Call Site 4 <<
	.uleb128 Ltmp13-Ltmp12          ##   Call between Ltmp12 and Ltmp13
	.uleb128 Ltmp14-Lfunc_begin1    ##     jumps to Ltmp14
	.byte	0                       ##   On action: cleanup
	.uleb128 Ltmp13-Lfunc_begin1    ## >> Call Site 5 <<
	.uleb128 Lfunc_end1-Ltmp13      ##   Call between Ltmp13 and Lfunc_end1
	.byte	0                       ##     has no landing pad
	.byte	0                       ##   On action: cleanup
Lcst_end1:
	.p2align	2
                                        ## -- End function
	.section	__TEXT,__text,regular,pure_instructions
	.p2align	4, 0x90         ## -- Begin function _ZNSt3__16vectorINS_12basic_stringIcNS_11char_traitsIcEENS_9allocatorIcEEEENS4_IS6_EEE5clearEv
__ZNSt3__16vectorINS_12basic_stringIcNS_11char_traitsIcEENS_9allocatorIcEEEENS4_IS6_EEE5clearEv: ## @_ZNSt3__16vectorINS_12basic_stringIcNS_11char_traitsIcEENS_9allocatorIcEEEENS4_IS6_EEE5clearEv
Lfunc_begin2:
	.cfi_startproc
	.cfi_personality 155, ___gxx_personality_v0
	.cfi_lsda 16, Lexception2
## %bb.0:
	pushq	%rbp
	.cfi_def_cfa_offset 16
	.cfi_offset %rbp, -16
	movq	%rsp, %rbp
	.cfi_def_cfa_register %rbp
	subq	$32, %rsp
	movq	%rdi, -8(%rbp)
	movq	-8(%rbp), %rax
	movq	%rax, %rdi
	movq	%rax, -24(%rbp)         ## 8-byte Spill
	callq	__ZNKSt3__16vectorINS_12basic_stringIcNS_11char_traitsIcEENS_9allocatorIcEEEENS4_IS6_EEE4sizeEv
	movq	%rax, -16(%rbp)
	movq	-24(%rbp), %rdi         ## 8-byte Reload
	callq	__ZNSt3__113__vector_baseINS_12basic_stringIcNS_11char_traitsIcEENS_9allocatorIcEEEENS4_IS6_EEE5clearEv
	movq	-16(%rbp), %rsi
Ltmp18:
	movq	-24(%rbp), %rdi         ## 8-byte Reload
	callq	__ZNKSt3__16vectorINS_12basic_stringIcNS_11char_traitsIcEENS_9allocatorIcEEEENS4_IS6_EEE17__annotate_shrinkEm
Ltmp19:
	jmp	LBB7_1
LBB7_1:
Ltmp20:
	movq	-24(%rbp), %rdi         ## 8-byte Reload
	callq	__ZNSt3__16vectorINS_12basic_stringIcNS_11char_traitsIcEENS_9allocatorIcEEEENS4_IS6_EEE26__invalidate_all_iteratorsEv
Ltmp21:
	jmp	LBB7_2
LBB7_2:
	addq	$32, %rsp
	popq	%rbp
	retq
LBB7_3:
Ltmp22:
	movq	%rax, %rdi
	movq	%rdx, -32(%rbp)         ## 8-byte Spill
	callq	___clang_call_terminate
Lfunc_end2:
	.cfi_endproc
	.section	__TEXT,__gcc_except_tab
	.p2align	2
GCC_except_table7:
Lexception2:
	.byte	255                     ## @LPStart Encoding = omit
	.byte	155                     ## @TType Encoding = indirect pcrel sdata4
	.uleb128 Lttbase0-Lttbaseref0
Lttbaseref0:
	.byte	1                       ## Call site Encoding = uleb128
	.uleb128 Lcst_end2-Lcst_begin2
Lcst_begin2:
	.uleb128 Ltmp18-Lfunc_begin2    ## >> Call Site 1 <<
	.uleb128 Ltmp21-Ltmp18          ##   Call between Ltmp18 and Ltmp21
	.uleb128 Ltmp22-Lfunc_begin2    ##     jumps to Ltmp22
	.byte	1                       ##   On action: 1
Lcst_end2:
	.byte	1                       ## >> Action Record 1 <<
                                        ##   Catch TypeInfo 1
	.byte	0                       ##   No further actions
	.p2align	2
                                        ## >> Catch TypeInfos <<
	.long	0                       ## TypeInfo 1
Lttbase0:
	.p2align	2
                                        ## -- End function
	.section	__TEXT,__text,regular,pure_instructions
	.p2align	4, 0x90         ## -- Begin function _ZNSt3__16vectorINS_12basic_stringIcNS_11char_traitsIcEENS_9allocatorIcEEEENS4_IS6_EEE9push_backEOS6_
__ZNSt3__16vectorINS_12basic_stringIcNS_11char_traitsIcEENS_9allocatorIcEEEENS4_IS6_EEE9push_backEOS6_: ## @_ZNSt3__16vectorINS_12basic_stringIcNS_11char_traitsIcEENS_9allocatorIcEEEENS4_IS6_EEE9push_backEOS6_
	.cfi_startproc
## %bb.0:
	pushq	%rbp
	.cfi_def_cfa_offset 16
	.cfi_offset %rbp, -16
	movq	%rsp, %rbp
	.cfi_def_cfa_register %rbp
	subq	$64, %rsp
	movq	%rdi, -8(%rbp)
	movq	%rsi, -16(%rbp)
	movq	-8(%rbp), %rax
	movq	8(%rax), %rcx
	movq	%rax, %rdx
	movq	%rdx, %rdi
	movq	%rax, -32(%rbp)         ## 8-byte Spill
	movq	%rcx, -40(%rbp)         ## 8-byte Spill
	callq	__ZNSt3__113__vector_baseINS_12basic_stringIcNS_11char_traitsIcEENS_9allocatorIcEEEENS4_IS6_EEE9__end_capEv
	movq	-40(%rbp), %rcx         ## 8-byte Reload
	cmpq	(%rax), %rcx
	jae	LBB8_2
## %bb.1:
	leaq	-24(%rbp), %rdi
	movq	-32(%rbp), %rsi         ## 8-byte Reload
	movl	$1, %edx
	callq	__ZNSt3__16vectorINS_12basic_stringIcNS_11char_traitsIcEENS_9allocatorIcEEEENS4_IS6_EEE24__RAII_IncreaseAnnotatorC1ERKS8_m
	movq	-32(%rbp), %rax         ## 8-byte Reload
	movq	%rax, %rdi
	callq	__ZNSt3__113__vector_baseINS_12basic_stringIcNS_11char_traitsIcEENS_9allocatorIcEEEENS4_IS6_EEE7__allocEv
	movq	-32(%rbp), %rcx         ## 8-byte Reload
	movq	8(%rcx), %rdi
	movq	%rax, -48(%rbp)         ## 8-byte Spill
	callq	__ZNSt3__1L16__to_raw_pointerINS_12basic_stringIcNS_11char_traitsIcEENS_9allocatorIcEEEEEEPT_S8_
	movq	-16(%rbp), %rdi
	movq	%rax, -56(%rbp)         ## 8-byte Spill
	callq	__ZNSt3__1L4moveIRNS_12basic_stringIcNS_11char_traitsIcEENS_9allocatorIcEEEEEEONS_16remove_referenceIT_E4typeEOS9_
	movq	-48(%rbp), %rdi         ## 8-byte Reload
	movq	-56(%rbp), %rsi         ## 8-byte Reload
	movq	%rax, %rdx
	callq	__ZNSt3__116allocator_traitsINS_9allocatorINS_12basic_stringIcNS_11char_traitsIcEENS1_IcEEEEEEE9constructIS6_JS6_EEEvRS7_PT_DpOT0_
	leaq	-24(%rbp), %rdi
	callq	__ZNSt3__16vectorINS_12basic_stringIcNS_11char_traitsIcEENS_9allocatorIcEEEENS4_IS6_EEE24__RAII_IncreaseAnnotator6__doneEv
	movq	-32(%rbp), %rax         ## 8-byte Reload
	movq	8(%rax), %rcx
	addq	$24, %rcx
	movq	%rcx, 8(%rax)
	jmp	LBB8_3
LBB8_2:
	movq	-16(%rbp), %rdi
	callq	__ZNSt3__1L4moveIRNS_12basic_stringIcNS_11char_traitsIcEENS_9allocatorIcEEEEEEONS_16remove_referenceIT_E4typeEOS9_
	movq	-32(%rbp), %rdi         ## 8-byte Reload
	movq	%rax, %rsi
	callq	__ZNSt3__16vectorINS_12basic_stringIcNS_11char_traitsIcEENS_9allocatorIcEEEENS4_IS6_EEE21__push_back_slow_pathIS6_EEvOT_
LBB8_3:
	addq	$64, %rsp
	popq	%rbp
	retq
	.cfi_endproc
                                        ## -- End function
	.p2align	4, 0x90         ## -- Begin function _ZNKSt3__112basic_stringIcNS_11char_traitsIcEENS_9allocatorIcEEE6substrEmm
__ZNKSt3__112basic_stringIcNS_11char_traitsIcEENS_9allocatorIcEEE6substrEmm: ## @_ZNKSt3__112basic_stringIcNS_11char_traitsIcEENS_9allocatorIcEEE6substrEmm
	.cfi_startproc
## %bb.0:
	pushq	%rbp
	.cfi_def_cfa_offset 16
	.cfi_offset %rbp, -16
	movq	%rsp, %rbp
	.cfi_def_cfa_register %rbp
	subq	$64, %rsp
	movq	%rdi, %rax
	movq	%rsi, -8(%rbp)
	movq	%rdx, -16(%rbp)
	movq	%rcx, -24(%rbp)
	movq	-8(%rbp), %rcx
	movq	-16(%rbp), %rdx
	movq	-24(%rbp), %rsi
	movq	%rdi, -32(%rbp)         ## 8-byte Spill
	movq	%rcx, %rdi
	movq	%rax, -40(%rbp)         ## 8-byte Spill
	movq	%rcx, -48(%rbp)         ## 8-byte Spill
	movq	%rdx, -56(%rbp)         ## 8-byte Spill
	movq	%rsi, -64(%rbp)         ## 8-byte Spill
	callq	__ZNKSt3__112basic_stringIcNS_11char_traitsIcEENS_9allocatorIcEEE7__allocEv
	movq	-32(%rbp), %rdi         ## 8-byte Reload
	movq	-48(%rbp), %rsi         ## 8-byte Reload
	movq	-56(%rbp), %rdx         ## 8-byte Reload
	movq	-64(%rbp), %rcx         ## 8-byte Reload
	movq	%rax, %r8
	callq	__ZNSt3__112basic_stringIcNS_11char_traitsIcEENS_9allocatorIcEEEC1ERKS5_mmRKS4_
	movq	-40(%rbp), %rax         ## 8-byte Reload
	addq	$64, %rsp
	popq	%rbp
	retq
	.cfi_endproc
                                        ## -- End function
	.p2align	4, 0x90         ## -- Begin function _ZNSt3__1L3minImEERKT_S3_S3_
__ZNSt3__1L3minImEERKT_S3_S3_:          ## @_ZNSt3__1L3minImEERKT_S3_S3_
	.cfi_startproc
## %bb.0:
	pushq	%rbp
	.cfi_def_cfa_offset 16
	.cfi_offset %rbp, -16
	movq	%rsp, %rbp
	.cfi_def_cfa_register %rbp
	subq	$32, %rsp
	movq	%rdi, -8(%rbp)
	movq	%rsi, -16(%rbp)
	movq	-8(%rbp), %rdi
	movq	-16(%rbp), %rsi
	callq	__ZNSt3__1L3minImNS_6__lessImmEEEERKT_S5_S5_T0_
	addq	$32, %rsp
	popq	%rbp
	retq
	.cfi_endproc
                                        ## -- End function
	.p2align	4, 0x90         ## -- Begin function _ZNKSt3__112basic_stringIcNS_11char_traitsIcEENS_9allocatorIcEEE4sizeEv
__ZNKSt3__112basic_stringIcNS_11char_traitsIcEENS_9allocatorIcEEE4sizeEv: ## @_ZNKSt3__112basic_stringIcNS_11char_traitsIcEENS_9allocatorIcEEE4sizeEv
	.cfi_startproc
## %bb.0:
	pushq	%rbp
	.cfi_def_cfa_offset 16
	.cfi_offset %rbp, -16
	movq	%rsp, %rbp
	.cfi_def_cfa_register %rbp
	subq	$32, %rsp
	movq	%rdi, -8(%rbp)
	movq	-8(%rbp), %rax
	movq	%rax, %rdi
	movq	%rax, -16(%rbp)         ## 8-byte Spill
	callq	__ZNKSt3__112basic_stringIcNS_11char_traitsIcEENS_9allocatorIcEEE9__is_longEv
	testb	$1, %al
	jne	LBB11_1
	jmp	LBB11_2
LBB11_1:
	movq	-16(%rbp), %rdi         ## 8-byte Reload
	callq	__ZNKSt3__112basic_stringIcNS_11char_traitsIcEENS_9allocatorIcEEE15__get_long_sizeEv
	movq	%rax, -24(%rbp)         ## 8-byte Spill
	jmp	LBB11_3
LBB11_2:
	movq	-16(%rbp), %rdi         ## 8-byte Reload
	callq	__ZNKSt3__112basic_stringIcNS_11char_traitsIcEENS_9allocatorIcEEE16__get_short_sizeEv
	movq	%rax, -24(%rbp)         ## 8-byte Spill
LBB11_3:
	movq	-24(%rbp), %rax         ## 8-byte Reload
	addq	$32, %rsp
	popq	%rbp
	retq
	.cfi_endproc
                                        ## -- End function
	.p2align	4, 0x90         ## -- Begin function _ZNKSt3__16vectorINS_12basic_stringIcNS_11char_traitsIcEENS_9allocatorIcEEEENS4_IS6_EEE4sizeEv
__ZNKSt3__16vectorINS_12basic_stringIcNS_11char_traitsIcEENS_9allocatorIcEEEENS4_IS6_EEE4sizeEv: ## @_ZNKSt3__16vectorINS_12basic_stringIcNS_11char_traitsIcEENS_9allocatorIcEEEENS4_IS6_EEE4sizeEv
	.cfi_startproc
## %bb.0:
	pushq	%rbp
	.cfi_def_cfa_offset 16
	.cfi_offset %rbp, -16
	movq	%rsp, %rbp
	.cfi_def_cfa_register %rbp
	movq	%rdi, -8(%rbp)
	movq	-8(%rbp), %rax
	movq	8(%rax), %rcx
	movq	(%rax), %rax
	subq	%rax, %rcx
	movq	%rcx, %rax
	cqto
	movl	$24, %ecx
	idivq	%rcx
	popq	%rbp
	retq
	.cfi_endproc
                                        ## -- End function
	.globl	__Z7countspNSt3__112basic_stringIcNS_11char_traitsIcEENS_9allocatorIcEEEE ## -- Begin function _Z7countspNSt3__112basic_stringIcNS_11char_traitsIcEENS_9allocatorIcEEEE
	.p2align	4, 0x90
__Z7countspNSt3__112basic_stringIcNS_11char_traitsIcEENS_9allocatorIcEEEE: ## @_Z7countspNSt3__112basic_stringIcNS_11char_traitsIcEENS_9allocatorIcEEEE
Lfunc_begin3:
	.cfi_startproc
	.cfi_personality 155, ___gxx_personality_v0
	.cfi_lsda 16, Lexception3
## %bb.0:
	pushq	%rbp
	.cfi_def_cfa_offset 16
	.cfi_offset %rbp, -16
	movq	%rsp, %rbp
	.cfi_def_cfa_register %rbp
	subq	$96, %rsp
	leaq	-24(%rbp), %rax
	movq	%rdi, -56(%rbp)         ## 8-byte Spill
	movq	%rax, %rdi
	movq	%rax, -64(%rbp)         ## 8-byte Spill
	callq	__ZNSt3__16vectorINS_12basic_stringIcNS_11char_traitsIcEENS_9allocatorIcEEEENS4_IS6_EEEC1Ev
	movl	$0, -28(%rbp)
Ltmp23:
	movl	$32, %edx
	movq	-56(%rbp), %rdi         ## 8-byte Reload
	movq	-64(%rbp), %rsi         ## 8-byte Reload
	callq	__Z5splitRKNSt3__112basic_stringIcNS_11char_traitsIcEENS_9allocatorIcEEEERNS_6vectorIS5_NS3_IS5_EEEEc
Ltmp24:
	jmp	LBB13_1
LBB13_1:
	movl	$0, -48(%rbp)
LBB13_2:                                ## =>This Inner Loop Header: Depth=1
	movslq	-48(%rbp), %rax
	leaq	-24(%rbp), %rdi
	movq	%rax, -72(%rbp)         ## 8-byte Spill
	callq	__ZNKSt3__16vectorINS_12basic_stringIcNS_11char_traitsIcEENS_9allocatorIcEEEENS4_IS6_EEE4sizeEv
	movq	-72(%rbp), %rcx         ## 8-byte Reload
	cmpq	%rax, %rcx
	jae	LBB13_11
## %bb.3:                               ##   in Loop: Header=BB13_2 Depth=1
	movslq	-48(%rbp), %rsi
	leaq	-24(%rbp), %rdi
	callq	__ZNSt3__16vectorINS_12basic_stringIcNS_11char_traitsIcEENS_9allocatorIcEEEENS4_IS6_EEEixEm
	movq	%rax, %rdi
	callq	__ZNKSt3__112basic_stringIcNS_11char_traitsIcEENS_9allocatorIcEEE5c_strEv
Ltmp25:
	leaq	L_.str.3(%rip), %rsi
	movq	%rax, %rdi
	callq	_strcmp
Ltmp26:
	movl	%eax, -76(%rbp)         ## 4-byte Spill
	jmp	LBB13_4
LBB13_4:                                ##   in Loop: Header=BB13_2 Depth=1
	movl	-76(%rbp), %eax         ## 4-byte Reload
	cmpl	$0, %eax
	je	LBB13_9
## %bb.5:                               ##   in Loop: Header=BB13_2 Depth=1
	movslq	-48(%rbp), %rsi
	leaq	-24(%rbp), %rdi
	callq	__ZNSt3__16vectorINS_12basic_stringIcNS_11char_traitsIcEENS_9allocatorIcEEEENS4_IS6_EEEixEm
	movq	%rax, %rdi
	callq	__ZNKSt3__112basic_stringIcNS_11char_traitsIcEENS_9allocatorIcEEE5c_strEv
Ltmp27:
	leaq	L_.str.4(%rip), %rsi
	movq	%rax, %rdi
	callq	_strcmp
Ltmp28:
	movl	%eax, -80(%rbp)         ## 4-byte Spill
	jmp	LBB13_6
LBB13_6:                                ##   in Loop: Header=BB13_2 Depth=1
	movl	-80(%rbp), %eax         ## 4-byte Reload
	cmpl	$0, %eax
	je	LBB13_9
## %bb.7:                               ##   in Loop: Header=BB13_2 Depth=1
	movl	-28(%rbp), %eax
	addl	$1, %eax
	movl	%eax, -28(%rbp)
	jmp	LBB13_9
LBB13_8:
Ltmp29:
                                        ## kill: def $edx killed $edx killed $rdx
	movq	%rax, -40(%rbp)
	movl	%edx, -44(%rbp)
	leaq	-24(%rbp), %rdi
	callq	__ZNSt3__16vectorINS_12basic_stringIcNS_11char_traitsIcEENS_9allocatorIcEEEENS4_IS6_EEED1Ev
	jmp	LBB13_12
LBB13_9:                                ##   in Loop: Header=BB13_2 Depth=1
	jmp	LBB13_10
LBB13_10:                               ##   in Loop: Header=BB13_2 Depth=1
	movl	-48(%rbp), %eax
	addl	$1, %eax
	movl	%eax, -48(%rbp)
	jmp	LBB13_2
LBB13_11:
	movl	-28(%rbp), %eax
	leaq	-24(%rbp), %rdi
	movl	%eax, -84(%rbp)         ## 4-byte Spill
	callq	__ZNSt3__16vectorINS_12basic_stringIcNS_11char_traitsIcEENS_9allocatorIcEEEENS4_IS6_EEED1Ev
	movl	-84(%rbp), %eax         ## 4-byte Reload
	addq	$96, %rsp
	popq	%rbp
	retq
LBB13_12:
	movq	-40(%rbp), %rdi
	callq	__Unwind_Resume
	ud2
Lfunc_end3:
	.cfi_endproc
	.section	__TEXT,__gcc_except_tab
	.p2align	2
GCC_except_table13:
Lexception3:
	.byte	255                     ## @LPStart Encoding = omit
	.byte	255                     ## @TType Encoding = omit
	.byte	1                       ## Call site Encoding = uleb128
	.uleb128 Lcst_end3-Lcst_begin3
Lcst_begin3:
	.uleb128 Ltmp23-Lfunc_begin3    ## >> Call Site 1 <<
	.uleb128 Ltmp28-Ltmp23          ##   Call between Ltmp23 and Ltmp28
	.uleb128 Ltmp29-Lfunc_begin3    ##     jumps to Ltmp29
	.byte	0                       ##   On action: cleanup
	.uleb128 Ltmp28-Lfunc_begin3    ## >> Call Site 2 <<
	.uleb128 Lfunc_end3-Ltmp28      ##   Call between Ltmp28 and Lfunc_end3
	.byte	0                       ##     has no landing pad
	.byte	0                       ##   On action: cleanup
Lcst_end3:
	.p2align	2
                                        ## -- End function
	.section	__TEXT,__text,regular,pure_instructions
	.p2align	4, 0x90         ## -- Begin function _ZNSt3__16vectorINS_12basic_stringIcNS_11char_traitsIcEENS_9allocatorIcEEEENS4_IS6_EEEC1Ev
__ZNSt3__16vectorINS_12basic_stringIcNS_11char_traitsIcEENS_9allocatorIcEEEENS4_IS6_EEEC1Ev: ## @_ZNSt3__16vectorINS_12basic_stringIcNS_11char_traitsIcEENS_9allocatorIcEEEENS4_IS6_EEEC1Ev
	.cfi_startproc
## %bb.0:
	pushq	%rbp
	.cfi_def_cfa_offset 16
	.cfi_offset %rbp, -16
	movq	%rsp, %rbp
	.cfi_def_cfa_register %rbp
	subq	$16, %rsp
	movq	%rdi, -8(%rbp)
	movq	-8(%rbp), %rdi
	callq	__ZNSt3__16vectorINS_12basic_stringIcNS_11char_traitsIcEENS_9allocatorIcEEEENS4_IS6_EEEC2Ev
	addq	$16, %rsp
	popq	%rbp
	retq
	.cfi_endproc
                                        ## -- End function
	.p2align	4, 0x90         ## -- Begin function _ZNSt3__16vectorINS_12basic_stringIcNS_11char_traitsIcEENS_9allocatorIcEEEENS4_IS6_EEEixEm
__ZNSt3__16vectorINS_12basic_stringIcNS_11char_traitsIcEENS_9allocatorIcEEEENS4_IS6_EEEixEm: ## @_ZNSt3__16vectorINS_12basic_stringIcNS_11char_traitsIcEENS_9allocatorIcEEEENS4_IS6_EEEixEm
	.cfi_startproc
## %bb.0:
	pushq	%rbp
	.cfi_def_cfa_offset 16
	.cfi_offset %rbp, -16
	movq	%rsp, %rbp
	.cfi_def_cfa_register %rbp
	movq	%rdi, -8(%rbp)
	movq	%rsi, -16(%rbp)
	movq	-8(%rbp), %rax
	movq	(%rax), %rax
	imulq	$24, -16(%rbp), %rcx
	addq	%rcx, %rax
	popq	%rbp
	retq
	.cfi_endproc
                                        ## -- End function
	.p2align	4, 0x90         ## -- Begin function _ZNSt3__16vectorINS_12basic_stringIcNS_11char_traitsIcEENS_9allocatorIcEEEENS4_IS6_EEED1Ev
__ZNSt3__16vectorINS_12basic_stringIcNS_11char_traitsIcEENS_9allocatorIcEEEENS4_IS6_EEED1Ev: ## @_ZNSt3__16vectorINS_12basic_stringIcNS_11char_traitsIcEENS_9allocatorIcEEEENS4_IS6_EEED1Ev
	.cfi_startproc
## %bb.0:
	pushq	%rbp
	.cfi_def_cfa_offset 16
	.cfi_offset %rbp, -16
	movq	%rsp, %rbp
	.cfi_def_cfa_register %rbp
	subq	$16, %rsp
	movq	%rdi, -8(%rbp)
	movq	-8(%rbp), %rdi
	callq	__ZNSt3__16vectorINS_12basic_stringIcNS_11char_traitsIcEENS_9allocatorIcEEEENS4_IS6_EEED2Ev
	addq	$16, %rsp
	popq	%rbp
	retq
	.cfi_endproc
                                        ## -- End function
	.globl	__Z5getchv              ## -- Begin function _Z5getchv
	.p2align	4, 0x90
__Z5getchv:                             ## @_Z5getchv
	.cfi_startproc
## %bb.0:
	pushq	%rbp
	.cfi_def_cfa_offset 16
	.cfi_offset %rbp, -16
	movq	%rsp, %rbp
	.cfi_def_cfa_register %rbp
	subq	$112, %rsp
	xorl	%eax, %eax
	movq	___stack_chk_guard@GOTPCREL(%rip), %rcx
	movq	(%rcx), %rcx
	movq	%rcx, -8(%rbp)
	movb	$0, -81(%rbp)
	leaq	-80(%rbp), %rcx
	movq	%rcx, %rdx
	movq	%rdx, %rdi
	movl	%eax, %esi
	movl	$72, %edx
	movl	%eax, -88(%rbp)         ## 4-byte Spill
	movq	%rcx, -96(%rbp)         ## 8-byte Spill
	callq	_memset
	movl	-88(%rbp), %edi         ## 4-byte Reload
	movq	-96(%rbp), %rsi         ## 8-byte Reload
	callq	_tcgetattr
	cmpl	$0, %eax
	jge	LBB17_2
## %bb.1:
	leaq	L_.str.5(%rip), %rdi
	callq	_perror
LBB17_2:
	xorl	%eax, %eax
	movq	-56(%rbp), %rcx
	andq	$-257, %rcx             ## imm = 0xFEFF
	movq	%rcx, -56(%rbp)
	movq	-56(%rbp), %rcx
	andq	$-9, %rcx
	movq	%rcx, -56(%rbp)
	movb	$1, -32(%rbp)
	movb	$0, -31(%rbp)
	movl	%eax, %edi
	movl	%eax, %esi
	leaq	-80(%rbp), %rdx
	callq	_tcsetattr
	cmpl	$0, %eax
	jge	LBB17_4
## %bb.3:
	leaq	L_.str.6(%rip), %rdi
	callq	_perror
LBB17_4:
	xorl	%edi, %edi
	leaq	-81(%rbp), %rsi
	movl	$1, %edx
	callq	_read
	cmpq	$0, %rax
	jge	LBB17_6
## %bb.5:
	leaq	L_.str.7(%rip), %rdi
	callq	_perror
LBB17_6:
	xorl	%edi, %edi
	movq	-56(%rbp), %rax
	orq	$256, %rax              ## imm = 0x100
	movq	%rax, -56(%rbp)
	movq	-56(%rbp), %rax
	orq	$8, %rax
	movq	%rax, -56(%rbp)
	movl	$1, %esi
	leaq	-80(%rbp), %rdx
	callq	_tcsetattr
	cmpl	$0, %eax
	jge	LBB17_8
## %bb.7:
	leaq	L_.str.8(%rip), %rdi
	callq	_perror
LBB17_8:
	movb	-81(%rbp), %al
	movq	___stack_chk_guard@GOTPCREL(%rip), %rcx
	movq	(%rcx), %rcx
	movq	-8(%rbp), %rdx
	cmpq	%rdx, %rcx
	movb	%al, -97(%rbp)          ## 1-byte Spill
	jne	LBB17_10
## %bb.9:
	movb	-97(%rbp), %al          ## 1-byte Reload
	movsbl	%al, %eax
	addq	$112, %rsp
	popq	%rbp
	retq
LBB17_10:
	callq	___stack_chk_fail
	ud2
	.cfi_endproc
                                        ## -- End function
	.globl	__Z5mkdirPKc            ## -- Begin function _Z5mkdirPKc
	.p2align	4, 0x90
__Z5mkdirPKc:                           ## @_Z5mkdirPKc
Lfunc_begin4:
	.cfi_startproc
	.cfi_personality 155, ___gxx_personality_v0
	.cfi_lsda 16, Lexception4
## %bb.0:
	pushq	%rbp
	.cfi_def_cfa_offset 16
	.cfi_offset %rbp, -16
	movq	%rsp, %rbp
	.cfi_def_cfa_register %rbp
	subq	$112, %rsp
	movq	%rdi, -8(%rbp)
	leaq	L_.str.9(%rip), %rsi
	leaq	-80(%rbp), %rax
	movq	%rax, %rdi
	movq	%rax, -104(%rbp)        ## 8-byte Spill
	callq	__ZNSt3__112basic_stringIcNS_11char_traitsIcEENS_9allocatorIcEEEC1IDnEEPKc
	movq	-8(%rbp), %rdx
Ltmp30:
	leaq	-56(%rbp), %rdi
	movq	-104(%rbp), %rsi        ## 8-byte Reload
	callq	__ZNSt3__1plIcNS_11char_traitsIcEENS_9allocatorIcEEEENS_12basic_stringIT_T0_T1_EEOS9_PKS6_
Ltmp31:
	jmp	LBB18_1
LBB18_1:
Ltmp33:
	leaq	L_.str.10(%rip), %rdx
	leaq	-32(%rbp), %rdi
	leaq	-56(%rbp), %rsi
	callq	__ZNSt3__1plIcNS_11char_traitsIcEENS_9allocatorIcEEEENS_12basic_stringIT_T0_T1_EEOS9_PKS6_
Ltmp34:
	jmp	LBB18_2
LBB18_2:
	leaq	-32(%rbp), %rdi
	callq	__ZNKSt3__112basic_stringIcNS_11char_traitsIcEENS_9allocatorIcEEE5c_strEv
Ltmp36:
	movq	%rax, %rdi
	callq	_system
Ltmp37:
	jmp	LBB18_3
LBB18_3:
	leaq	-32(%rbp), %rdi
	callq	__ZNSt3__112basic_stringIcNS_11char_traitsIcEENS_9allocatorIcEEED1Ev
	leaq	-56(%rbp), %rdi
	callq	__ZNSt3__112basic_stringIcNS_11char_traitsIcEENS_9allocatorIcEEED1Ev
	leaq	-80(%rbp), %rdi
	callq	__ZNSt3__112basic_stringIcNS_11char_traitsIcEENS_9allocatorIcEEED1Ev
	addq	$112, %rsp
	popq	%rbp
	retq
LBB18_4:
Ltmp32:
                                        ## kill: def $edx killed $edx killed $rdx
	movq	%rax, -88(%rbp)
	movl	%edx, -92(%rbp)
	jmp	LBB18_8
LBB18_5:
Ltmp35:
                                        ## kill: def $edx killed $edx killed $rdx
	movq	%rax, -88(%rbp)
	movl	%edx, -92(%rbp)
	jmp	LBB18_7
LBB18_6:
Ltmp38:
                                        ## kill: def $edx killed $edx killed $rdx
	movq	%rax, -88(%rbp)
	movl	%edx, -92(%rbp)
	leaq	-32(%rbp), %rdi
	callq	__ZNSt3__112basic_stringIcNS_11char_traitsIcEENS_9allocatorIcEEED1Ev
LBB18_7:
	leaq	-56(%rbp), %rdi
	callq	__ZNSt3__112basic_stringIcNS_11char_traitsIcEENS_9allocatorIcEEED1Ev
LBB18_8:
	leaq	-80(%rbp), %rdi
	callq	__ZNSt3__112basic_stringIcNS_11char_traitsIcEENS_9allocatorIcEEED1Ev
## %bb.9:
	movq	-88(%rbp), %rdi
	callq	__Unwind_Resume
	ud2
Lfunc_end4:
	.cfi_endproc
	.section	__TEXT,__gcc_except_tab
	.p2align	2
GCC_except_table18:
Lexception4:
	.byte	255                     ## @LPStart Encoding = omit
	.byte	255                     ## @TType Encoding = omit
	.byte	1                       ## Call site Encoding = uleb128
	.uleb128 Lcst_end4-Lcst_begin4
Lcst_begin4:
	.uleb128 Lfunc_begin4-Lfunc_begin4 ## >> Call Site 1 <<
	.uleb128 Ltmp30-Lfunc_begin4    ##   Call between Lfunc_begin4 and Ltmp30
	.byte	0                       ##     has no landing pad
	.byte	0                       ##   On action: cleanup
	.uleb128 Ltmp30-Lfunc_begin4    ## >> Call Site 2 <<
	.uleb128 Ltmp31-Ltmp30          ##   Call between Ltmp30 and Ltmp31
	.uleb128 Ltmp32-Lfunc_begin4    ##     jumps to Ltmp32
	.byte	0                       ##   On action: cleanup
	.uleb128 Ltmp33-Lfunc_begin4    ## >> Call Site 3 <<
	.uleb128 Ltmp34-Ltmp33          ##   Call between Ltmp33 and Ltmp34
	.uleb128 Ltmp35-Lfunc_begin4    ##     jumps to Ltmp35
	.byte	0                       ##   On action: cleanup
	.uleb128 Ltmp36-Lfunc_begin4    ## >> Call Site 4 <<
	.uleb128 Ltmp37-Ltmp36          ##   Call between Ltmp36 and Ltmp37
	.uleb128 Ltmp38-Lfunc_begin4    ##     jumps to Ltmp38
	.byte	0                       ##   On action: cleanup
	.uleb128 Ltmp37-Lfunc_begin4    ## >> Call Site 5 <<
	.uleb128 Lfunc_end4-Ltmp37      ##   Call between Ltmp37 and Lfunc_end4
	.byte	0                       ##     has no landing pad
	.byte	0                       ##   On action: cleanup
Lcst_end4:
	.p2align	2
                                        ## -- End function
	.section	__TEXT,__text,regular,pure_instructions
	.globl	__Z15recursive_mkdirPKc ## -- Begin function _Z15recursive_mkdirPKc
	.p2align	4, 0x90
__Z15recursive_mkdirPKc:                ## @_Z15recursive_mkdirPKc
Lfunc_begin5:
	.cfi_startproc
	.cfi_personality 155, ___gxx_personality_v0
	.cfi_lsda 16, Lexception5
## %bb.0:
	pushq	%rbp
	.cfi_def_cfa_offset 16
	.cfi_offset %rbp, -16
	movq	%rsp, %rbp
	.cfi_def_cfa_register %rbp
	subq	$160, %rsp
	movq	%rdi, -8(%rbp)
	leaq	-32(%rbp), %rdi
	callq	__ZNSt3__16vectorINS_12basic_stringIcNS_11char_traitsIcEENS_9allocatorIcEEEENS4_IS6_EEEC1Ev
	leaq	-56(%rbp), %rdi
	callq	__ZNSt3__16vectorINS_12basic_stringIcNS_11char_traitsIcEENS_9allocatorIcEEEENS4_IS6_EEEC1Ev
	movq	-8(%rbp), %rsi
Ltmp39:
	leaq	-80(%rbp), %rdi
	callq	__ZNSt3__112basic_stringIcNS_11char_traitsIcEENS_9allocatorIcEEEC1IDnEEPKc
Ltmp40:
	jmp	LBB19_1
LBB19_1:
Ltmp42:
	leaq	-80(%rbp), %rdi
	leaq	-32(%rbp), %rsi
	movl	$47, %edx
	callq	__Z5splitRKNSt3__112basic_stringIcNS_11char_traitsIcEENS_9allocatorIcEEEERNS_6vectorIS5_NS3_IS5_EEEEc
Ltmp43:
	jmp	LBB19_2
LBB19_2:
	leaq	-80(%rbp), %rdi
	callq	__ZNSt3__112basic_stringIcNS_11char_traitsIcEENS_9allocatorIcEEED1Ev
	leaq	-120(%rbp), %rdi
	callq	__ZNSt3__112basic_stringIcNS_11char_traitsIcEENS_9allocatorIcEEEC1Ev
	movl	$0, -124(%rbp)
LBB19_3:                                ## =>This Inner Loop Header: Depth=1
	movslq	-124(%rbp), %rax
	leaq	-32(%rbp), %rdi
	movq	%rax, -160(%rbp)        ## 8-byte Spill
	callq	__ZNKSt3__16vectorINS_12basic_stringIcNS_11char_traitsIcEENS_9allocatorIcEEEENS4_IS6_EEE4sizeEv
	movq	-160(%rbp), %rcx        ## 8-byte Reload
	cmpq	%rax, %rcx
	jae	LBB19_13
## %bb.4:                               ##   in Loop: Header=BB19_3 Depth=1
	movslq	-124(%rbp), %rsi
	leaq	-32(%rbp), %rdi
	callq	__ZNSt3__16vectorINS_12basic_stringIcNS_11char_traitsIcEENS_9allocatorIcEEEENS4_IS6_EEEixEm
Ltmp45:
	leaq	-152(%rbp), %rdi
	movl	$47, %edx
	movq	%rax, %rsi
	callq	__ZNSt3__1plIcNS_11char_traitsIcEENS_9allocatorIcEEEENS_12basic_stringIT_T0_T1_EERKS9_S6_
Ltmp46:
	jmp	LBB19_5
LBB19_5:                                ##   in Loop: Header=BB19_3 Depth=1
Ltmp47:
	leaq	-120(%rbp), %rdi
	leaq	-152(%rbp), %rsi
	callq	__ZNSt3__112basic_stringIcNS_11char_traitsIcEENS_9allocatorIcEEEpLERKS5_
Ltmp48:
	jmp	LBB19_6
LBB19_6:                                ##   in Loop: Header=BB19_3 Depth=1
	leaq	-152(%rbp), %rdi
	callq	__ZNSt3__112basic_stringIcNS_11char_traitsIcEENS_9allocatorIcEEED1Ev
	leaq	-120(%rbp), %rdi
	callq	__ZNKSt3__112basic_stringIcNS_11char_traitsIcEENS_9allocatorIcEEE5c_strEv
Ltmp50:
	movq	%rax, %rdi
	callq	__Z5mkdirPKc
Ltmp51:
	jmp	LBB19_7
LBB19_7:                                ##   in Loop: Header=BB19_3 Depth=1
	jmp	LBB19_8
LBB19_8:                                ##   in Loop: Header=BB19_3 Depth=1
	movl	-124(%rbp), %eax
	addl	$1, %eax
	movl	%eax, -124(%rbp)
	jmp	LBB19_3
LBB19_9:
Ltmp41:
                                        ## kill: def $edx killed $edx killed $rdx
	movq	%rax, -88(%rbp)
	movl	%edx, -92(%rbp)
	jmp	LBB19_15
LBB19_10:
Ltmp44:
                                        ## kill: def $edx killed $edx killed $rdx
	movq	%rax, -88(%rbp)
	movl	%edx, -92(%rbp)
	leaq	-80(%rbp), %rdi
	callq	__ZNSt3__112basic_stringIcNS_11char_traitsIcEENS_9allocatorIcEEED1Ev
	jmp	LBB19_15
LBB19_11:
Ltmp52:
                                        ## kill: def $edx killed $edx killed $rdx
	movq	%rax, -88(%rbp)
	movl	%edx, -92(%rbp)
	jmp	LBB19_14
LBB19_12:
Ltmp49:
                                        ## kill: def $edx killed $edx killed $rdx
	movq	%rax, -88(%rbp)
	movl	%edx, -92(%rbp)
	leaq	-152(%rbp), %rdi
	callq	__ZNSt3__112basic_stringIcNS_11char_traitsIcEENS_9allocatorIcEEED1Ev
	jmp	LBB19_14
LBB19_13:
	leaq	-120(%rbp), %rdi
	callq	__ZNSt3__112basic_stringIcNS_11char_traitsIcEENS_9allocatorIcEEED1Ev
	leaq	-56(%rbp), %rdi
	callq	__ZNSt3__16vectorINS_12basic_stringIcNS_11char_traitsIcEENS_9allocatorIcEEEENS4_IS6_EEED1Ev
	leaq	-32(%rbp), %rdi
	callq	__ZNSt3__16vectorINS_12basic_stringIcNS_11char_traitsIcEENS_9allocatorIcEEEENS4_IS6_EEED1Ev
	addq	$160, %rsp
	popq	%rbp
	retq
LBB19_14:
	leaq	-120(%rbp), %rdi
	callq	__ZNSt3__112basic_stringIcNS_11char_traitsIcEENS_9allocatorIcEEED1Ev
LBB19_15:
	leaq	-56(%rbp), %rdi
	callq	__ZNSt3__16vectorINS_12basic_stringIcNS_11char_traitsIcEENS_9allocatorIcEEEENS4_IS6_EEED1Ev
	leaq	-32(%rbp), %rdi
	callq	__ZNSt3__16vectorINS_12basic_stringIcNS_11char_traitsIcEENS_9allocatorIcEEEENS4_IS6_EEED1Ev
## %bb.16:
	movq	-88(%rbp), %rdi
	callq	__Unwind_Resume
	ud2
Lfunc_end5:
	.cfi_endproc
	.section	__TEXT,__gcc_except_tab
	.p2align	2
GCC_except_table19:
Lexception5:
	.byte	255                     ## @LPStart Encoding = omit
	.byte	255                     ## @TType Encoding = omit
	.byte	1                       ## Call site Encoding = uleb128
	.uleb128 Lcst_end5-Lcst_begin5
Lcst_begin5:
	.uleb128 Ltmp39-Lfunc_begin5    ## >> Call Site 1 <<
	.uleb128 Ltmp40-Ltmp39          ##   Call between Ltmp39 and Ltmp40
	.uleb128 Ltmp41-Lfunc_begin5    ##     jumps to Ltmp41
	.byte	0                       ##   On action: cleanup
	.uleb128 Ltmp42-Lfunc_begin5    ## >> Call Site 2 <<
	.uleb128 Ltmp43-Ltmp42          ##   Call between Ltmp42 and Ltmp43
	.uleb128 Ltmp44-Lfunc_begin5    ##     jumps to Ltmp44
	.byte	0                       ##   On action: cleanup
	.uleb128 Ltmp45-Lfunc_begin5    ## >> Call Site 3 <<
	.uleb128 Ltmp46-Ltmp45          ##   Call between Ltmp45 and Ltmp46
	.uleb128 Ltmp52-Lfunc_begin5    ##     jumps to Ltmp52
	.byte	0                       ##   On action: cleanup
	.uleb128 Ltmp47-Lfunc_begin5    ## >> Call Site 4 <<
	.uleb128 Ltmp48-Ltmp47          ##   Call between Ltmp47 and Ltmp48
	.uleb128 Ltmp49-Lfunc_begin5    ##     jumps to Ltmp49
	.byte	0                       ##   On action: cleanup
	.uleb128 Ltmp50-Lfunc_begin5    ## >> Call Site 5 <<
	.uleb128 Ltmp51-Ltmp50          ##   Call between Ltmp50 and Ltmp51
	.uleb128 Ltmp52-Lfunc_begin5    ##     jumps to Ltmp52
	.byte	0                       ##   On action: cleanup
	.uleb128 Ltmp51-Lfunc_begin5    ## >> Call Site 6 <<
	.uleb128 Lfunc_end5-Ltmp51      ##   Call between Ltmp51 and Lfunc_end5
	.byte	0                       ##     has no landing pad
	.byte	0                       ##   On action: cleanup
Lcst_end5:
	.p2align	2
                                        ## -- End function
	.section	__TEXT,__text,regular,pure_instructions
	.globl	__ZNSt3__1plIcNS_11char_traitsIcEENS_9allocatorIcEEEENS_12basic_stringIT_T0_T1_EERKS9_S6_ ## -- Begin function _ZNSt3__1plIcNS_11char_traitsIcEENS_9allocatorIcEEEENS_12basic_stringIT_T0_T1_EERKS9_S6_
	.weak_definition	__ZNSt3__1plIcNS_11char_traitsIcEENS_9allocatorIcEEEENS_12basic_stringIT_T0_T1_EERKS9_S6_
	.p2align	4, 0x90
__ZNSt3__1plIcNS_11char_traitsIcEENS_9allocatorIcEEEENS_12basic_stringIT_T0_T1_EERKS9_S6_: ## @_ZNSt3__1plIcNS_11char_traitsIcEENS_9allocatorIcEEEENS_12basic_stringIT_T0_T1_EERKS9_S6_
Lfunc_begin6:
	.cfi_startproc
	.cfi_personality 155, ___gxx_personality_v0
	.cfi_lsda 16, Lexception6
## %bb.0:
	pushq	%rbp
	.cfi_def_cfa_offset 16
	.cfi_offset %rbp, -16
	movq	%rsp, %rbp
	.cfi_def_cfa_register %rbp
	subq	$80, %rsp
                                        ## kill: def $dl killed $dl killed $edx
	movq	%rdi, %rax
	movq	%rsi, -8(%rbp)
	movb	%dl, -9(%rbp)
	movb	$0, -10(%rbp)
	movq	-8(%rbp), %rcx
	movq	%rdi, -56(%rbp)         ## 8-byte Spill
	movq	%rcx, %rdi
	movq	%rax, -64(%rbp)         ## 8-byte Spill
	callq	__ZNKSt3__112basic_stringIcNS_11char_traitsIcEENS_9allocatorIcEEE13get_allocatorEv
	leaq	-16(%rbp), %rsi
	movq	-56(%rbp), %rdi         ## 8-byte Reload
	callq	__ZNSt3__112basic_stringIcNS_11char_traitsIcEENS_9allocatorIcEEEC1ERKS4_
	movq	-8(%rbp), %rdi
	callq	__ZNKSt3__112basic_stringIcNS_11char_traitsIcEENS_9allocatorIcEEE4sizeEv
	movq	%rax, -32(%rbp)
	movq	-8(%rbp), %rdi
	callq	__ZNKSt3__112basic_stringIcNS_11char_traitsIcEENS_9allocatorIcEEE4dataEv
	movq	-32(%rbp), %rcx
	movq	%rcx, %rsi
	incq	%rsi
Ltmp53:
	movq	-56(%rbp), %rdi         ## 8-byte Reload
	movq	%rsi, -72(%rbp)         ## 8-byte Spill
	movq	%rax, %rsi
	movq	%rcx, %rdx
	movq	-72(%rbp), %rcx         ## 8-byte Reload
	callq	__ZNSt3__112basic_stringIcNS_11char_traitsIcEENS_9allocatorIcEEE6__initEPKcmm
Ltmp54:
	jmp	LBB20_1
LBB20_1:
	movsbl	-9(%rbp), %esi
Ltmp55:
	movq	-56(%rbp), %rdi         ## 8-byte Reload
	callq	__ZNSt3__112basic_stringIcNS_11char_traitsIcEENS_9allocatorIcEEE9push_backEc
Ltmp56:
	jmp	LBB20_2
LBB20_2:
	movb	$1, -10(%rbp)
	testb	$1, -10(%rbp)
	jne	LBB20_5
	jmp	LBB20_4
LBB20_3:
Ltmp57:
                                        ## kill: def $edx killed $edx killed $rdx
	movq	%rax, -40(%rbp)
	movl	%edx, -44(%rbp)
	movq	-56(%rbp), %rdi         ## 8-byte Reload
	callq	__ZNSt3__112basic_stringIcNS_11char_traitsIcEENS_9allocatorIcEEED1Ev
	jmp	LBB20_6
LBB20_4:
	movq	-56(%rbp), %rdi         ## 8-byte Reload
	callq	__ZNSt3__112basic_stringIcNS_11char_traitsIcEENS_9allocatorIcEEED1Ev
LBB20_5:
	movq	-64(%rbp), %rax         ## 8-byte Reload
	addq	$80, %rsp
	popq	%rbp
	retq
LBB20_6:
	movq	-40(%rbp), %rdi
	callq	__Unwind_Resume
	ud2
Lfunc_end6:
	.cfi_endproc
	.section	__TEXT,__gcc_except_tab
	.p2align	2
GCC_except_table20:
Lexception6:
	.byte	255                     ## @LPStart Encoding = omit
	.byte	255                     ## @TType Encoding = omit
	.byte	1                       ## Call site Encoding = uleb128
	.uleb128 Lcst_end6-Lcst_begin6
Lcst_begin6:
	.uleb128 Ltmp53-Lfunc_begin6    ## >> Call Site 1 <<
	.uleb128 Ltmp56-Ltmp53          ##   Call between Ltmp53 and Ltmp56
	.uleb128 Ltmp57-Lfunc_begin6    ##     jumps to Ltmp57
	.byte	0                       ##   On action: cleanup
	.uleb128 Ltmp56-Lfunc_begin6    ## >> Call Site 2 <<
	.uleb128 Lfunc_end6-Ltmp56      ##   Call between Ltmp56 and Lfunc_end6
	.byte	0                       ##     has no landing pad
	.byte	0                       ##   On action: cleanup
Lcst_end6:
	.p2align	2
                                        ## -- End function
	.section	__TEXT,__text,regular,pure_instructions
	.p2align	4, 0x90         ## -- Begin function _ZNSt3__112basic_stringIcNS_11char_traitsIcEENS_9allocatorIcEEEpLERKS5_
__ZNSt3__112basic_stringIcNS_11char_traitsIcEENS_9allocatorIcEEEpLERKS5_: ## @_ZNSt3__112basic_stringIcNS_11char_traitsIcEENS_9allocatorIcEEEpLERKS5_
	.cfi_startproc
## %bb.0:
	pushq	%rbp
	.cfi_def_cfa_offset 16
	.cfi_offset %rbp, -16
	movq	%rsp, %rbp
	.cfi_def_cfa_register %rbp
	subq	$16, %rsp
	movq	%rdi, -8(%rbp)
	movq	%rsi, -16(%rbp)
	movq	-8(%rbp), %rdi
	movq	-16(%rbp), %rsi
	callq	__ZNSt3__112basic_stringIcNS_11char_traitsIcEENS_9allocatorIcEEE6appendERKS5_
	addq	$16, %rsp
	popq	%rbp
	retq
	.cfi_endproc
                                        ## -- End function
	.globl	__Z8Get_DataNSt3__112basic_stringIcNS_11char_traitsIcEENS_9allocatorIcEEEES5_ ## -- Begin function _Z8Get_DataNSt3__112basic_stringIcNS_11char_traitsIcEENS_9allocatorIcEEEES5_
	.p2align	4, 0x90
__Z8Get_DataNSt3__112basic_stringIcNS_11char_traitsIcEENS_9allocatorIcEEEES5_: ## @_Z8Get_DataNSt3__112basic_stringIcNS_11char_traitsIcEENS_9allocatorIcEEEES5_
Lfunc_begin7:
	.cfi_startproc
	.cfi_personality 155, ___gxx_personality_v0
	.cfi_lsda 16, Lexception7
## %bb.0:
	pushq	%rbp
	.cfi_def_cfa_offset 16
	.cfi_offset %rbp, -16
	movq	%rsp, %rbp
	.cfi_def_cfa_register %rbp
	subq	$1008, %rsp             ## imm = 0x3F0
	movq	%rdi, %rax
	movq	___stack_chk_guard@GOTPCREL(%rip), %rcx
	movq	(%rcx), %rcx
	movq	%rcx, -8(%rbp)
	leaq	-608(%rbp), %rcx
	movq	%rdi, -864(%rbp)        ## 8-byte Spill
	movq	%rcx, %rdi
	movq	%rdx, -872(%rbp)        ## 8-byte Spill
	movq	%rsi, -880(%rbp)        ## 8-byte Spill
	movq	%rax, -888(%rbp)        ## 8-byte Spill
	movq	%rcx, -896(%rbp)        ## 8-byte Spill
	callq	__ZNSt3__16vectorINS_12basic_stringIcNS_11char_traitsIcEENS_9allocatorIcEEEENS4_IS6_EEEC1Ev
Ltmp58:
	movl	$47, %edx
	movq	-880(%rbp), %rdi        ## 8-byte Reload
	movq	-896(%rbp), %rsi        ## 8-byte Reload
	callq	__Z5splitRKNSt3__112basic_stringIcNS_11char_traitsIcEENS_9allocatorIcEEEERNS_6vectorIS5_NS3_IS5_EEEEc
Ltmp59:
	jmp	LBB22_1
LBB22_1:
Ltmp60:
	leaq	L_.str.3(%rip), %rsi
	leaq	-648(%rbp), %rdi
	callq	__ZNSt3__112basic_stringIcNS_11char_traitsIcEENS_9allocatorIcEEEC1IDnEEPKc
Ltmp61:
	jmp	LBB22_2
LBB22_2:
	movl	$0, -652(%rbp)
LBB22_3:                                ## =>This Inner Loop Header: Depth=1
	movslq	-652(%rbp), %rax
	leaq	-608(%rbp), %rdi
	movq	%rax, -904(%rbp)        ## 8-byte Spill
	callq	__ZNKSt3__16vectorINS_12basic_stringIcNS_11char_traitsIcEENS_9allocatorIcEEEENS4_IS6_EEE4sizeEv
	subq	$1, %rax
	movq	-904(%rbp), %rcx        ## 8-byte Reload
	cmpq	%rax, %rcx
	jae	LBB22_11
## %bb.4:                               ##   in Loop: Header=BB22_3 Depth=1
	movslq	-652(%rbp), %rsi
	leaq	-608(%rbp), %rdi
	callq	__ZNSt3__16vectorINS_12basic_stringIcNS_11char_traitsIcEENS_9allocatorIcEEEENS4_IS6_EEEixEm
Ltmp118:
	leaq	-680(%rbp), %rdi
	movl	$47, %edx
	movq	%rax, %rsi
	callq	__ZNSt3__1plIcNS_11char_traitsIcEENS_9allocatorIcEEEENS_12basic_stringIT_T0_T1_EERKS9_S6_
Ltmp119:
	jmp	LBB22_5
LBB22_5:                                ##   in Loop: Header=BB22_3 Depth=1
Ltmp121:
	leaq	-648(%rbp), %rdi
	leaq	-680(%rbp), %rsi
	callq	__ZNSt3__112basic_stringIcNS_11char_traitsIcEENS_9allocatorIcEEEpLERKS5_
Ltmp122:
	jmp	LBB22_6
LBB22_6:                                ##   in Loop: Header=BB22_3 Depth=1
	leaq	-680(%rbp), %rdi
	callq	__ZNSt3__112basic_stringIcNS_11char_traitsIcEENS_9allocatorIcEEED1Ev
## %bb.7:                               ##   in Loop: Header=BB22_3 Depth=1
	movl	-652(%rbp), %eax
	addl	$1, %eax
	movl	%eax, -652(%rbp)
	jmp	LBB22_3
LBB22_8:
Ltmp62:
                                        ## kill: def $edx killed $edx killed $rdx
	movq	%rax, -616(%rbp)
	movl	%edx, -620(%rbp)
	jmp	LBB22_100
LBB22_9:
Ltmp120:
                                        ## kill: def $edx killed $edx killed $rdx
	movq	%rax, -616(%rbp)
	movl	%edx, -620(%rbp)
	jmp	LBB22_99
LBB22_10:
Ltmp123:
                                        ## kill: def $edx killed $edx killed $rdx
	movq	%rax, -616(%rbp)
	movl	%edx, -620(%rbp)
	leaq	-680(%rbp), %rdi
	callq	__ZNSt3__112basic_stringIcNS_11char_traitsIcEENS_9allocatorIcEEED1Ev
	jmp	LBB22_99
LBB22_11:
Ltmp63:
	leaq	L_.str.11(%rip), %rdx
	leaq	-728(%rbp), %rdi
	leaq	-648(%rbp), %rsi
	callq	__ZNSt3__1plIcNS_11char_traitsIcEENS_9allocatorIcEEEENS_12basic_stringIT_T0_T1_EERKS9_PKS6_
Ltmp64:
	jmp	LBB22_12
LBB22_12:
	leaq	-608(%rbp), %rax
	movq	%rax, %rdi
	movq	%rax, -912(%rbp)        ## 8-byte Spill
	callq	__ZNKSt3__16vectorINS_12basic_stringIcNS_11char_traitsIcEENS_9allocatorIcEEEENS4_IS6_EEE4sizeEv
	decq	%rax
	movq	-912(%rbp), %rdi        ## 8-byte Reload
	movq	%rax, %rsi
	callq	__ZNSt3__16vectorINS_12basic_stringIcNS_11char_traitsIcEENS_9allocatorIcEEEENS4_IS6_EEEixEm
	movq	%rax, %rdi
	callq	__ZNKSt3__112basic_stringIcNS_11char_traitsIcEENS_9allocatorIcEEE5c_strEv
Ltmp65:
	leaq	-752(%rbp), %rdi
	movq	%rax, %rsi
	callq	__Z6as_cgpPc
Ltmp66:
	jmp	LBB22_13
LBB22_13:
Ltmp68:
	leaq	-704(%rbp), %rdi
	leaq	-728(%rbp), %rsi
	leaq	-752(%rbp), %rdx
	callq	__ZNSt3__1plIcNS_11char_traitsIcEENS_9allocatorIcEEEENS_12basic_stringIT_T0_T1_EEOS9_SA_
Ltmp69:
	jmp	LBB22_14
LBB22_14:
	leaq	-752(%rbp), %rdi
	callq	__ZNSt3__112basic_stringIcNS_11char_traitsIcEENS_9allocatorIcEEED1Ev
	leaq	-728(%rbp), %rdi
	callq	__ZNSt3__112basic_stringIcNS_11char_traitsIcEENS_9allocatorIcEEED1Ev
Ltmp71:
	leaq	-584(%rbp), %rdi
	leaq	-704(%rbp), %rsi
	movl	$8, %edx
	callq	__ZNSt3__114basic_ifstreamIcNS_11char_traitsIcEEEC1ERKNS_12basic_stringIcS2_NS_9allocatorIcEEEEj
Ltmp72:
	jmp	LBB22_15
LBB22_15:
	leaq	-776(%rbp), %rdi
	callq	__ZNSt3__112basic_stringIcNS_11char_traitsIcEENS_9allocatorIcEEEC1Ev
Ltmp74:
	leaq	-584(%rbp), %rdi
	callq	__ZNKSt3__114basic_ifstreamIcNS_11char_traitsIcEEE7is_openEv
Ltmp75:
	movb	%al, -913(%rbp)         ## 1-byte Spill
	jmp	LBB22_16
LBB22_16:
	movb	-913(%rbp), %al         ## 1-byte Reload
	testb	$1, %al
	jne	LBB22_17
	jmp	LBB22_74
LBB22_17:
	jmp	LBB22_18
LBB22_18:                               ## =>This Loop Header: Depth=1
                                        ##     Child Loop BB22_26 Depth 2
                                        ##       Child Loop BB22_30 Depth 3
Ltmp91:
	leaq	-584(%rbp), %rdi
	leaq	-776(%rbp), %rsi
	callq	__ZNSt3__1L7getlineIcNS_11char_traitsIcEENS_9allocatorIcEEEERNS_13basic_istreamIT_T0_EES9_RNS_12basic_stringIS6_S7_T1_EE
Ltmp92:
	movq	%rax, -928(%rbp)        ## 8-byte Spill
	jmp	LBB22_19
LBB22_19:                               ##   in Loop: Header=BB22_18 Depth=1
	movq	-928(%rbp), %rax        ## 8-byte Reload
	movq	(%rax), %rcx
	movq	-24(%rcx), %rcx
	addq	%rcx, %rax
Ltmp93:
	movq	%rax, %rdi
	callq	__ZNKSt3__19basic_iosIcNS_11char_traitsIcEEEcvbEv
Ltmp94:
	movb	%al, -929(%rbp)         ## 1-byte Spill
	jmp	LBB22_20
LBB22_20:                               ##   in Loop: Header=BB22_18 Depth=1
	movb	-929(%rbp), %al         ## 1-byte Reload
	testb	$1, %al
	jne	LBB22_21
	jmp	LBB22_72
LBB22_21:                               ##   in Loop: Header=BB22_18 Depth=1
	leaq	-776(%rbp), %rdi
	callq	__ZNKSt3__112basic_stringIcNS_11char_traitsIcEENS_9allocatorIcEEE5c_strEv
Ltmp99:
	leaq	L_.str.3(%rip), %rsi
	movq	%rax, %rdi
	callq	_strcmp
Ltmp100:
	movl	%eax, -936(%rbp)        ## 4-byte Spill
	jmp	LBB22_22
LBB22_22:                               ##   in Loop: Header=BB22_18 Depth=1
	movl	-936(%rbp), %eax        ## 4-byte Reload
	cmpl	$0, %eax
	je	LBB22_71
## %bb.23:                              ##   in Loop: Header=BB22_18 Depth=1
Ltmp101:
	leaq	L_.str.3(%rip), %rsi
	leaq	-800(%rbp), %rdi
	callq	__ZNSt3__112basic_stringIcNS_11char_traitsIcEENS_9allocatorIcEEEC1IDnEEPKc
Ltmp102:
	jmp	LBB22_24
LBB22_24:                               ##   in Loop: Header=BB22_18 Depth=1
	movb	$0, -801(%rbp)
Ltmp104:
	leaq	L_.str.3(%rip), %rsi
	movq	-864(%rbp), %rdi        ## 8-byte Reload
	callq	__ZNSt3__112basic_stringIcNS_11char_traitsIcEENS_9allocatorIcEEEC1IDnEEPKc
Ltmp105:
	jmp	LBB22_25
LBB22_25:                               ##   in Loop: Header=BB22_18 Depth=1
	movl	$0, -808(%rbp)
LBB22_26:                               ##   Parent Loop BB22_18 Depth=1
                                        ## =>  This Loop Header: Depth=2
                                        ##       Child Loop BB22_30 Depth 3
	movslq	-808(%rbp), %rax
	leaq	-776(%rbp), %rdi
	movq	%rax, -944(%rbp)        ## 8-byte Spill
	callq	__ZNKSt3__112basic_stringIcNS_11char_traitsIcEENS_9allocatorIcEEE4sizeEv
	movq	-944(%rbp), %rcx        ## 8-byte Reload
	cmpq	%rax, %rcx
	jae	LBB22_57
## %bb.27:                              ##   in Loop: Header=BB22_26 Depth=2
	movl	$0, -812(%rbp)
	cmpl	$0, -812(%rbp)
	jne	LBB22_55
## %bb.28:                              ##   in Loop: Header=BB22_26 Depth=2
	movslq	-808(%rbp), %rsi
	leaq	-776(%rbp), %rdi
	callq	__ZNSt3__112basic_stringIcNS_11char_traitsIcEENS_9allocatorIcEEEixEm
	movsbl	(%rax), %ecx
	cmpl	$61, %ecx
	jne	LBB22_50
## %bb.29:                              ##   in Loop: Header=BB22_26 Depth=2
	movl	-808(%rbp), %eax
	movl	%eax, -816(%rbp)
LBB22_30:                               ##   Parent Loop BB22_18 Depth=1
                                        ##     Parent Loop BB22_26 Depth=2
                                        ## =>    This Inner Loop Header: Depth=3
	movslq	-816(%rbp), %rax
	leaq	-776(%rbp), %rdi
	movq	%rax, -952(%rbp)        ## 8-byte Spill
	callq	__ZNKSt3__112basic_stringIcNS_11char_traitsIcEENS_9allocatorIcEEE4sizeEv
	movq	-952(%rbp), %rcx        ## 8-byte Reload
	cmpq	%rax, %rcx
	jae	LBB22_49
## %bb.31:                              ##   in Loop: Header=BB22_30 Depth=3
	movslq	-816(%rbp), %rsi
	leaq	-776(%rbp), %rdi
	callq	__ZNSt3__112basic_stringIcNS_11char_traitsIcEENS_9allocatorIcEEEixEm
	movsbl	(%rax), %ecx
	cmpl	$39, %ecx
	jne	LBB22_40
## %bb.32:                              ##   in Loop: Header=BB22_30 Depth=3
	cmpl	$0, -812(%rbp)
	jne	LBB22_40
## %bb.33:                              ##   in Loop: Header=BB22_30 Depth=3
	movl	-812(%rbp), %eax
	addl	$1, %eax
	movl	%eax, -812(%rbp)
	jmp	LBB22_40
LBB22_34:
Ltmp67:
                                        ## kill: def $edx killed $edx killed $rdx
	movq	%rax, -616(%rbp)
	movl	%edx, -620(%rbp)
	jmp	LBB22_36
LBB22_35:
Ltmp70:
                                        ## kill: def $edx killed $edx killed $rdx
	movq	%rax, -616(%rbp)
	movl	%edx, -620(%rbp)
	leaq	-752(%rbp), %rdi
	callq	__ZNSt3__112basic_stringIcNS_11char_traitsIcEENS_9allocatorIcEEED1Ev
LBB22_36:
	leaq	-728(%rbp), %rdi
	callq	__ZNSt3__112basic_stringIcNS_11char_traitsIcEENS_9allocatorIcEEED1Ev
	jmp	LBB22_99
LBB22_37:
Ltmp73:
                                        ## kill: def $edx killed $edx killed $rdx
	movq	%rax, -616(%rbp)
	movl	%edx, -620(%rbp)
	jmp	LBB22_98
LBB22_38:
Ltmp103:
                                        ## kill: def $edx killed $edx killed $rdx
	movq	%rax, -616(%rbp)
	movl	%edx, -620(%rbp)
	jmp	LBB22_97
LBB22_39:
Ltmp106:
                                        ## kill: def $edx killed $edx killed $rdx
	movq	%rax, -616(%rbp)
	movl	%edx, -620(%rbp)
	jmp	LBB22_70
LBB22_40:                               ##   in Loop: Header=BB22_30 Depth=3
	cmpl	$1, -812(%rbp)
	jne	LBB22_47
## %bb.41:                              ##   in Loop: Header=BB22_30 Depth=3
	movslq	-816(%rbp), %rsi
	leaq	-776(%rbp), %rdi
	callq	__ZNSt3__112basic_stringIcNS_11char_traitsIcEENS_9allocatorIcEEEixEm
	movsbl	(%rax), %ecx
	cmpl	$39, %ecx
	je	LBB22_45
## %bb.42:                              ##   in Loop: Header=BB22_30 Depth=3
	movslq	-816(%rbp), %rsi
	leaq	-776(%rbp), %rdi
	callq	__ZNSt3__112basic_stringIcNS_11char_traitsIcEENS_9allocatorIcEEEixEm
	movsbl	(%rax), %esi
Ltmp115:
	movq	-864(%rbp), %rdi        ## 8-byte Reload
	callq	__ZNSt3__112basic_stringIcNS_11char_traitsIcEENS_9allocatorIcEEE9push_backEc
Ltmp116:
	jmp	LBB22_43
LBB22_43:                               ##   in Loop: Header=BB22_30 Depth=3
	jmp	LBB22_46
LBB22_44:
Ltmp117:
                                        ## kill: def $edx killed $edx killed $rdx
	movq	%rax, -616(%rbp)
	movl	%edx, -620(%rbp)
	movq	-864(%rbp), %rdi        ## 8-byte Reload
	callq	__ZNSt3__112basic_stringIcNS_11char_traitsIcEENS_9allocatorIcEEED1Ev
	jmp	LBB22_70
LBB22_45:                               ##   in Loop: Header=BB22_30 Depth=3
	leaq	-776(%rbp), %rdi
	callq	__ZNKSt3__112basic_stringIcNS_11char_traitsIcEENS_9allocatorIcEEE4sizeEv
	addq	$1, %rax
                                        ## kill: def $eax killed $eax killed $rax
	movl	%eax, -808(%rbp)
LBB22_46:                               ##   in Loop: Header=BB22_30 Depth=3
	jmp	LBB22_47
LBB22_47:                               ##   in Loop: Header=BB22_30 Depth=3
	jmp	LBB22_48
LBB22_48:                               ##   in Loop: Header=BB22_30 Depth=3
	movl	-816(%rbp), %eax
	addl	$1, %eax
	movl	%eax, -816(%rbp)
	jmp	LBB22_30
LBB22_49:                               ##   in Loop: Header=BB22_26 Depth=2
	jmp	LBB22_54
LBB22_50:                               ##   in Loop: Header=BB22_26 Depth=2
	movslq	-808(%rbp), %rsi
	leaq	-776(%rbp), %rdi
	callq	__ZNSt3__112basic_stringIcNS_11char_traitsIcEENS_9allocatorIcEEEixEm
	movsbl	(%rax), %ecx
	cmpl	$32, %ecx
	je	LBB22_53
## %bb.51:                              ##   in Loop: Header=BB22_26 Depth=2
	movslq	-808(%rbp), %rsi
	leaq	-776(%rbp), %rdi
	callq	__ZNSt3__112basic_stringIcNS_11char_traitsIcEENS_9allocatorIcEEEixEm
	movsbl	(%rax), %esi
Ltmp113:
	leaq	-800(%rbp), %rdi
	callq	__ZNSt3__112basic_stringIcNS_11char_traitsIcEENS_9allocatorIcEEE9push_backEc
Ltmp114:
	jmp	LBB22_52
LBB22_52:                               ##   in Loop: Header=BB22_26 Depth=2
	jmp	LBB22_53
LBB22_53:                               ##   in Loop: Header=BB22_26 Depth=2
	jmp	LBB22_54
LBB22_54:                               ##   in Loop: Header=BB22_26 Depth=2
	jmp	LBB22_55
LBB22_55:                               ##   in Loop: Header=BB22_26 Depth=2
	jmp	LBB22_56
LBB22_56:                               ##   in Loop: Header=BB22_26 Depth=2
	movl	-808(%rbp), %eax
	addl	$1, %eax
	movl	%eax, -808(%rbp)
	jmp	LBB22_26
LBB22_57:                               ##   in Loop: Header=BB22_18 Depth=1
	leaq	-800(%rbp), %rdi
	callq	__ZNKSt3__112basic_stringIcNS_11char_traitsIcEENS_9allocatorIcEEE5c_strEv
Ltmp107:
	leaq	L_.str.3(%rip), %rsi
	movq	%rax, %rdi
	callq	_strcmp
Ltmp108:
	movl	%eax, -956(%rbp)        ## 4-byte Spill
	jmp	LBB22_58
LBB22_58:                               ##   in Loop: Header=BB22_18 Depth=1
	movl	-956(%rbp), %eax        ## 4-byte Reload
	cmpl	$0, %eax
	jne	LBB22_60
## %bb.59:                              ##   in Loop: Header=BB22_18 Depth=1
	jmp	LBB22_65
LBB22_60:                               ##   in Loop: Header=BB22_18 Depth=1
	leaq	-800(%rbp), %rdi
	callq	__ZNKSt3__112basic_stringIcNS_11char_traitsIcEENS_9allocatorIcEEE5c_strEv
	movq	-872(%rbp), %rdi        ## 8-byte Reload
	movq	%rax, -968(%rbp)        ## 8-byte Spill
	callq	__ZNKSt3__112basic_stringIcNS_11char_traitsIcEENS_9allocatorIcEEE5c_strEv
Ltmp109:
	movq	-968(%rbp), %rdi        ## 8-byte Reload
	movq	%rax, %rsi
	callq	_strcmp
Ltmp110:
	movl	%eax, -972(%rbp)        ## 4-byte Spill
	jmp	LBB22_61
LBB22_61:                               ##   in Loop: Header=BB22_18 Depth=1
	movl	-972(%rbp), %eax        ## 4-byte Reload
	cmpl	$0, %eax
	jne	LBB22_64
## %bb.62:                              ##   in Loop: Header=BB22_18 Depth=1
Ltmp111:
	leaq	-584(%rbp), %rdi
	callq	__ZNSt3__114basic_ifstreamIcNS_11char_traitsIcEEE5closeEv
Ltmp112:
	jmp	LBB22_63
LBB22_63:                               ##   in Loop: Header=BB22_18 Depth=1
	movb	$1, -801(%rbp)
	movl	$1, -820(%rbp)
	jmp	LBB22_66
LBB22_64:                               ##   in Loop: Header=BB22_18 Depth=1
	jmp	LBB22_65
LBB22_65:                               ##   in Loop: Header=BB22_18 Depth=1
	movl	$0, -820(%rbp)
LBB22_66:                               ##   in Loop: Header=BB22_18 Depth=1
	testb	$1, -801(%rbp)
	jne	LBB22_68
## %bb.67:                              ##   in Loop: Header=BB22_18 Depth=1
	movq	-864(%rbp), %rdi        ## 8-byte Reload
	callq	__ZNSt3__112basic_stringIcNS_11char_traitsIcEENS_9allocatorIcEEED1Ev
LBB22_68:                               ##   in Loop: Header=BB22_18 Depth=1
	leaq	-800(%rbp), %rdi
	callq	__ZNSt3__112basic_stringIcNS_11char_traitsIcEENS_9allocatorIcEEED1Ev
	movl	-820(%rbp), %eax
	testl	%eax, %eax
	jne	LBB22_95
	jmp	LBB22_69
LBB22_69:                               ##   in Loop: Header=BB22_18 Depth=1
	jmp	LBB22_71
LBB22_70:
	leaq	-800(%rbp), %rdi
	callq	__ZNSt3__112basic_stringIcNS_11char_traitsIcEENS_9allocatorIcEEED1Ev
	jmp	LBB22_97
LBB22_71:                               ##   in Loop: Header=BB22_18 Depth=1
	jmp	LBB22_18
LBB22_72:
Ltmp95:
	leaq	-584(%rbp), %rdi
	callq	__ZNSt3__114basic_ifstreamIcNS_11char_traitsIcEEE5closeEv
Ltmp96:
	jmp	LBB22_73
LBB22_73:
	jmp	LBB22_93
LBB22_74:
	xorl	%eax, %eax
	movl	%eax, %esi
	movq	-880(%rbp), %rdi        ## 8-byte Reload
	callq	__ZNSt3__112basic_stringIcNS_11char_traitsIcEENS_9allocatorIcEEEixEm
	xorl	%ecx, %ecx
                                        ## kill: def $cl killed $cl killed $ecx
	movsbl	(%rax), %edx
	movb	$0, -849(%rbp)
	cmpl	$45, %edx
	movb	%cl, -973(%rbp)         ## 1-byte Spill
	je	LBB22_81
## %bb.75:
	xorl	%eax, %eax
	movl	%eax, %esi
	movq	-880(%rbp), %rdi        ## 8-byte Reload
	callq	__ZNSt3__112basic_stringIcNS_11char_traitsIcEENS_9allocatorIcEEEixEm
	xorl	%ecx, %ecx
                                        ## kill: def $cl killed $cl killed $ecx
	movsbl	(%rax), %edx
	cmpl	$46, %edx
	movb	%cl, -973(%rbp)         ## 1-byte Spill
	je	LBB22_81
## %bb.76:
Ltmp76:
	leaq	-848(%rbp), %rdi
	movq	-880(%rbp), %rsi        ## 8-byte Reload
	callq	__ZNSt3__112basic_stringIcNS_11char_traitsIcEENS_9allocatorIcEEEC1ERKS5_
Ltmp77:
	jmp	LBB22_77
LBB22_77:
	movb	$1, -849(%rbp)
Ltmp78:
	leaq	-848(%rbp), %rdi
	movl	$47, %esi
	callq	__Z7containNSt3__112basic_stringIcNS_11char_traitsIcEENS_9allocatorIcEEEEc
Ltmp79:
	movb	%al, -974(%rbp)         ## 1-byte Spill
	jmp	LBB22_78
LBB22_78:
	xorl	%eax, %eax
                                        ## kill: def $al killed $al killed $eax
	movb	-974(%rbp), %cl         ## 1-byte Reload
	testb	$1, %cl
	movb	%al, -973(%rbp)         ## 1-byte Spill
	jne	LBB22_81
	jmp	LBB22_79
LBB22_79:
	movq	-880(%rbp), %rdi        ## 8-byte Reload
	callq	__ZNKSt3__112basic_stringIcNS_11char_traitsIcEENS_9allocatorIcEEE5c_strEv
Ltmp80:
	leaq	L_.str.3(%rip), %rdi
	movq	%rax, %rsi
	callq	_strcmp
Ltmp81:
	movl	%eax, -980(%rbp)        ## 4-byte Spill
	jmp	LBB22_80
LBB22_80:
	movl	-980(%rbp), %eax        ## 4-byte Reload
	cmpl	$0, %eax
	setne	%cl
	movb	%cl, -973(%rbp)         ## 1-byte Spill
LBB22_81:
	movb	-973(%rbp), %al         ## 1-byte Reload
	testb	$1, -849(%rbp)
	movb	%al, -981(%rbp)         ## 1-byte Spill
	jne	LBB22_82
	jmp	LBB22_83
LBB22_82:
	leaq	-848(%rbp), %rdi
	callq	__ZNSt3__112basic_stringIcNS_11char_traitsIcEENS_9allocatorIcEEED1Ev
LBB22_83:
	movb	-981(%rbp), %al         ## 1-byte Reload
	testb	$1, %al
	jne	LBB22_84
	jmp	LBB22_92
LBB22_84:
Ltmp83:
	movq	__ZNSt3__14coutE@GOTPCREL(%rip), %rdi
	leaq	L_.str.12(%rip), %rsi
	callq	__ZNSt3__1lsINS_11char_traitsIcEEEERNS_13basic_ostreamIcT_EES6_PKc
Ltmp84:
	movq	%rax, -992(%rbp)        ## 8-byte Spill
	jmp	LBB22_85
LBB22_85:
Ltmp85:
	movq	-992(%rbp), %rdi        ## 8-byte Reload
	movq	-880(%rbp), %rsi        ## 8-byte Reload
	callq	__ZNSt3__1lsIcNS_11char_traitsIcEENS_9allocatorIcEEEERNS_13basic_ostreamIT_T0_EES9_RKNS_12basic_stringIS6_S7_T1_EE
Ltmp86:
	movq	%rax, -1000(%rbp)       ## 8-byte Spill
	jmp	LBB22_86
LBB22_86:
Ltmp87:
	leaq	L_.str.13(%rip), %rsi
	movq	-1000(%rbp), %rdi       ## 8-byte Reload
	callq	__ZNSt3__1lsINS_11char_traitsIcEEEERNS_13basic_ostreamIcT_EES6_PKc
Ltmp88:
	movq	%rax, -1008(%rbp)       ## 8-byte Spill
	jmp	LBB22_87
LBB22_87:
Ltmp89:
	leaq	__ZNSt3__1L4endlIcNS_11char_traitsIcEEEERNS_13basic_ostreamIT_T0_EES7_(%rip), %rsi
	movq	-1008(%rbp), %rdi       ## 8-byte Reload
	callq	__ZNSt3__113basic_ostreamIcNS_11char_traitsIcEEElsEPFRS3_S4_E
Ltmp90:
	jmp	LBB22_88
LBB22_88:
	jmp	LBB22_92
LBB22_89:
Ltmp82:
                                        ## kill: def $edx killed $edx killed $rdx
	movq	%rax, -616(%rbp)
	movl	%edx, -620(%rbp)
	testb	$1, -849(%rbp)
	jne	LBB22_90
	jmp	LBB22_91
LBB22_90:
	leaq	-848(%rbp), %rdi
	callq	__ZNSt3__112basic_stringIcNS_11char_traitsIcEENS_9allocatorIcEEED1Ev
LBB22_91:
	jmp	LBB22_97
LBB22_92:
	jmp	LBB22_93
LBB22_93:
Ltmp97:
	leaq	L_.str.3(%rip), %rsi
	movq	-864(%rbp), %rdi        ## 8-byte Reload
	callq	__ZNSt3__112basic_stringIcNS_11char_traitsIcEENS_9allocatorIcEEEC1IDnEEPKc
Ltmp98:
	jmp	LBB22_94
LBB22_94:
	movl	$1, -820(%rbp)
LBB22_95:
	leaq	-776(%rbp), %rdi
	callq	__ZNSt3__112basic_stringIcNS_11char_traitsIcEENS_9allocatorIcEEED1Ev
	leaq	-584(%rbp), %rdi
	callq	__ZNSt3__114basic_ifstreamIcNS_11char_traitsIcEEED1Ev
	leaq	-704(%rbp), %rdi
	callq	__ZNSt3__112basic_stringIcNS_11char_traitsIcEENS_9allocatorIcEEED1Ev
	leaq	-648(%rbp), %rdi
	callq	__ZNSt3__112basic_stringIcNS_11char_traitsIcEENS_9allocatorIcEEED1Ev
	leaq	-608(%rbp), %rdi
	callq	__ZNSt3__16vectorINS_12basic_stringIcNS_11char_traitsIcEENS_9allocatorIcEEEENS4_IS6_EEED1Ev
	movq	___stack_chk_guard@GOTPCREL(%rip), %rax
	movq	(%rax), %rax
	movq	-8(%rbp), %rcx
	cmpq	%rcx, %rax
	jne	LBB22_102
## %bb.96:
	movq	-888(%rbp), %rax        ## 8-byte Reload
	addq	$1008, %rsp             ## imm = 0x3F0
	popq	%rbp
	retq
LBB22_97:
	leaq	-776(%rbp), %rdi
	callq	__ZNSt3__112basic_stringIcNS_11char_traitsIcEENS_9allocatorIcEEED1Ev
	leaq	-584(%rbp), %rdi
	callq	__ZNSt3__114basic_ifstreamIcNS_11char_traitsIcEEED1Ev
LBB22_98:
	leaq	-704(%rbp), %rdi
	callq	__ZNSt3__112basic_stringIcNS_11char_traitsIcEENS_9allocatorIcEEED1Ev
LBB22_99:
	leaq	-648(%rbp), %rdi
	callq	__ZNSt3__112basic_stringIcNS_11char_traitsIcEENS_9allocatorIcEEED1Ev
LBB22_100:
	leaq	-608(%rbp), %rdi
	callq	__ZNSt3__16vectorINS_12basic_stringIcNS_11char_traitsIcEENS_9allocatorIcEEEENS4_IS6_EEED1Ev
## %bb.101:
	movq	-616(%rbp), %rdi
	callq	__Unwind_Resume
	ud2
LBB22_102:
	callq	___stack_chk_fail
	ud2
Lfunc_end7:
	.cfi_endproc
	.section	__TEXT,__gcc_except_tab
	.p2align	2
GCC_except_table22:
Lexception7:
	.byte	255                     ## @LPStart Encoding = omit
	.byte	255                     ## @TType Encoding = omit
	.byte	1                       ## Call site Encoding = uleb128
	.uleb128 Lcst_end7-Lcst_begin7
Lcst_begin7:
	.uleb128 Ltmp58-Lfunc_begin7    ## >> Call Site 1 <<
	.uleb128 Ltmp61-Ltmp58          ##   Call between Ltmp58 and Ltmp61
	.uleb128 Ltmp62-Lfunc_begin7    ##     jumps to Ltmp62
	.byte	0                       ##   On action: cleanup
	.uleb128 Ltmp118-Lfunc_begin7   ## >> Call Site 2 <<
	.uleb128 Ltmp119-Ltmp118        ##   Call between Ltmp118 and Ltmp119
	.uleb128 Ltmp120-Lfunc_begin7   ##     jumps to Ltmp120
	.byte	0                       ##   On action: cleanup
	.uleb128 Ltmp121-Lfunc_begin7   ## >> Call Site 3 <<
	.uleb128 Ltmp122-Ltmp121        ##   Call between Ltmp121 and Ltmp122
	.uleb128 Ltmp123-Lfunc_begin7   ##     jumps to Ltmp123
	.byte	0                       ##   On action: cleanup
	.uleb128 Ltmp63-Lfunc_begin7    ## >> Call Site 4 <<
	.uleb128 Ltmp64-Ltmp63          ##   Call between Ltmp63 and Ltmp64
	.uleb128 Ltmp120-Lfunc_begin7   ##     jumps to Ltmp120
	.byte	0                       ##   On action: cleanup
	.uleb128 Ltmp65-Lfunc_begin7    ## >> Call Site 5 <<
	.uleb128 Ltmp66-Ltmp65          ##   Call between Ltmp65 and Ltmp66
	.uleb128 Ltmp67-Lfunc_begin7    ##     jumps to Ltmp67
	.byte	0                       ##   On action: cleanup
	.uleb128 Ltmp68-Lfunc_begin7    ## >> Call Site 6 <<
	.uleb128 Ltmp69-Ltmp68          ##   Call between Ltmp68 and Ltmp69
	.uleb128 Ltmp70-Lfunc_begin7    ##     jumps to Ltmp70
	.byte	0                       ##   On action: cleanup
	.uleb128 Ltmp71-Lfunc_begin7    ## >> Call Site 7 <<
	.uleb128 Ltmp72-Ltmp71          ##   Call between Ltmp71 and Ltmp72
	.uleb128 Ltmp73-Lfunc_begin7    ##     jumps to Ltmp73
	.byte	0                       ##   On action: cleanup
	.uleb128 Ltmp74-Lfunc_begin7    ## >> Call Site 8 <<
	.uleb128 Ltmp102-Ltmp74         ##   Call between Ltmp74 and Ltmp102
	.uleb128 Ltmp103-Lfunc_begin7   ##     jumps to Ltmp103
	.byte	0                       ##   On action: cleanup
	.uleb128 Ltmp104-Lfunc_begin7   ## >> Call Site 9 <<
	.uleb128 Ltmp105-Ltmp104        ##   Call between Ltmp104 and Ltmp105
	.uleb128 Ltmp106-Lfunc_begin7   ##     jumps to Ltmp106
	.byte	0                       ##   On action: cleanup
	.uleb128 Ltmp115-Lfunc_begin7   ## >> Call Site 10 <<
	.uleb128 Ltmp112-Ltmp115        ##   Call between Ltmp115 and Ltmp112
	.uleb128 Ltmp117-Lfunc_begin7   ##     jumps to Ltmp117
	.byte	0                       ##   On action: cleanup
	.uleb128 Ltmp95-Lfunc_begin7    ## >> Call Site 11 <<
	.uleb128 Ltmp77-Ltmp95          ##   Call between Ltmp95 and Ltmp77
	.uleb128 Ltmp103-Lfunc_begin7   ##     jumps to Ltmp103
	.byte	0                       ##   On action: cleanup
	.uleb128 Ltmp78-Lfunc_begin7    ## >> Call Site 12 <<
	.uleb128 Ltmp81-Ltmp78          ##   Call between Ltmp78 and Ltmp81
	.uleb128 Ltmp82-Lfunc_begin7    ##     jumps to Ltmp82
	.byte	0                       ##   On action: cleanup
	.uleb128 Ltmp83-Lfunc_begin7    ## >> Call Site 13 <<
	.uleb128 Ltmp98-Ltmp83          ##   Call between Ltmp83 and Ltmp98
	.uleb128 Ltmp103-Lfunc_begin7   ##     jumps to Ltmp103
	.byte	0                       ##   On action: cleanup
	.uleb128 Ltmp98-Lfunc_begin7    ## >> Call Site 14 <<
	.uleb128 Lfunc_end7-Ltmp98      ##   Call between Ltmp98 and Lfunc_end7
	.byte	0                       ##     has no landing pad
	.byte	0                       ##   On action: cleanup
Lcst_end7:
	.p2align	2
                                        ## -- End function
	.section	__TEXT,__text,regular,pure_instructions
	.p2align	4, 0x90         ## -- Begin function _ZNSt3__1plIcNS_11char_traitsIcEENS_9allocatorIcEEEENS_12basic_stringIT_T0_T1_EEOS9_SA_
__ZNSt3__1plIcNS_11char_traitsIcEENS_9allocatorIcEEEENS_12basic_stringIT_T0_T1_EEOS9_SA_: ## @_ZNSt3__1plIcNS_11char_traitsIcEENS_9allocatorIcEEEENS_12basic_stringIT_T0_T1_EEOS9_SA_
	.cfi_startproc
## %bb.0:
	pushq	%rbp
	.cfi_def_cfa_offset 16
	.cfi_offset %rbp, -16
	movq	%rsp, %rbp
	.cfi_def_cfa_register %rbp
	subq	$32, %rsp
	movq	%rdi, %rax
	movq	%rsi, -8(%rbp)
	movq	%rdx, -16(%rbp)
	movq	-8(%rbp), %rcx
	movq	-16(%rbp), %rsi
	movq	%rdi, -24(%rbp)         ## 8-byte Spill
	movq	%rcx, %rdi
	movq	%rax, -32(%rbp)         ## 8-byte Spill
	callq	__ZNSt3__112basic_stringIcNS_11char_traitsIcEENS_9allocatorIcEEE6appendERKS5_
	movq	%rax, %rdi
	callq	__ZNSt3__1L4moveIRNS_12basic_stringIcNS_11char_traitsIcEENS_9allocatorIcEEEEEEONS_16remove_referenceIT_E4typeEOS9_
	movq	-24(%rbp), %rdi         ## 8-byte Reload
	movq	%rax, %rsi
	callq	__ZNSt3__112basic_stringIcNS_11char_traitsIcEENS_9allocatorIcEEEC1EOS5_
	movq	-32(%rbp), %rax         ## 8-byte Reload
	addq	$32, %rsp
	popq	%rbp
	retq
	.cfi_endproc
                                        ## -- End function
	.p2align	4, 0x90         ## -- Begin function _ZNSt3__1plIcNS_11char_traitsIcEENS_9allocatorIcEEEENS_12basic_stringIT_T0_T1_EERKS9_PKS6_
__ZNSt3__1plIcNS_11char_traitsIcEENS_9allocatorIcEEEENS_12basic_stringIT_T0_T1_EERKS9_PKS6_: ## @_ZNSt3__1plIcNS_11char_traitsIcEENS_9allocatorIcEEEENS_12basic_stringIT_T0_T1_EERKS9_PKS6_
Lfunc_begin8:
	.cfi_startproc
	.cfi_personality 155, ___gxx_personality_v0
	.cfi_lsda 16, Lexception8
## %bb.0:
	pushq	%rbp
	.cfi_def_cfa_offset 16
	.cfi_offset %rbp, -16
	movq	%rsp, %rbp
	.cfi_def_cfa_register %rbp
	subq	$96, %rsp
	movq	%rdi, %rax
	movq	%rsi, -8(%rbp)
	movq	%rdx, -16(%rbp)
	movb	$0, -17(%rbp)
	movq	-8(%rbp), %rcx
	movq	%rdi, -72(%rbp)         ## 8-byte Spill
	movq	%rcx, %rdi
	movq	%rax, -80(%rbp)         ## 8-byte Spill
	callq	__ZNKSt3__112basic_stringIcNS_11char_traitsIcEENS_9allocatorIcEEE13get_allocatorEv
	leaq	-24(%rbp), %rsi
	movq	-72(%rbp), %rdi         ## 8-byte Reload
	callq	__ZNSt3__112basic_stringIcNS_11char_traitsIcEENS_9allocatorIcEEEC1ERKS4_
	movq	-8(%rbp), %rdi
	callq	__ZNKSt3__112basic_stringIcNS_11char_traitsIcEENS_9allocatorIcEEE4sizeEv
	movq	%rax, -40(%rbp)
	movq	-16(%rbp), %rdi
	callq	__ZNSt3__111char_traitsIcE6lengthEPKc
	movq	%rax, -48(%rbp)
	movq	-8(%rbp), %rdi
	callq	__ZNKSt3__112basic_stringIcNS_11char_traitsIcEENS_9allocatorIcEEE4dataEv
	movq	-40(%rbp), %rcx
	movq	-48(%rbp), %rdx
	movq	%rcx, %rsi
	addq	%rdx, %rsi
Ltmp124:
	movq	-72(%rbp), %rdi         ## 8-byte Reload
	movq	%rsi, -88(%rbp)         ## 8-byte Spill
	movq	%rax, %rsi
	movq	%rcx, %rdx
	movq	-88(%rbp), %rcx         ## 8-byte Reload
	callq	__ZNSt3__112basic_stringIcNS_11char_traitsIcEENS_9allocatorIcEEE6__initEPKcmm
Ltmp125:
	jmp	LBB24_1
LBB24_1:
	movq	-16(%rbp), %rsi
	movq	-48(%rbp), %rdx
Ltmp126:
	movq	-72(%rbp), %rdi         ## 8-byte Reload
	callq	__ZNSt3__112basic_stringIcNS_11char_traitsIcEENS_9allocatorIcEEE6appendEPKcm
Ltmp127:
	jmp	LBB24_2
LBB24_2:
	movb	$1, -17(%rbp)
	testb	$1, -17(%rbp)
	jne	LBB24_5
	jmp	LBB24_4
LBB24_3:
Ltmp128:
                                        ## kill: def $edx killed $edx killed $rdx
	movq	%rax, -56(%rbp)
	movl	%edx, -60(%rbp)
	movq	-72(%rbp), %rdi         ## 8-byte Reload
	callq	__ZNSt3__112basic_stringIcNS_11char_traitsIcEENS_9allocatorIcEEED1Ev
	jmp	LBB24_6
LBB24_4:
	movq	-72(%rbp), %rdi         ## 8-byte Reload
	callq	__ZNSt3__112basic_stringIcNS_11char_traitsIcEENS_9allocatorIcEEED1Ev
LBB24_5:
	movq	-80(%rbp), %rax         ## 8-byte Reload
	addq	$96, %rsp
	popq	%rbp
	retq
LBB24_6:
	movq	-56(%rbp), %rdi
	callq	__Unwind_Resume
	ud2
Lfunc_end8:
	.cfi_endproc
	.section	__TEXT,__gcc_except_tab
	.p2align	2
GCC_except_table24:
Lexception8:
	.byte	255                     ## @LPStart Encoding = omit
	.byte	255                     ## @TType Encoding = omit
	.byte	1                       ## Call site Encoding = uleb128
	.uleb128 Lcst_end8-Lcst_begin8
Lcst_begin8:
	.uleb128 Ltmp124-Lfunc_begin8   ## >> Call Site 1 <<
	.uleb128 Ltmp127-Ltmp124        ##   Call between Ltmp124 and Ltmp127
	.uleb128 Ltmp128-Lfunc_begin8   ##     jumps to Ltmp128
	.byte	0                       ##   On action: cleanup
	.uleb128 Ltmp127-Lfunc_begin8   ## >> Call Site 2 <<
	.uleb128 Lfunc_end8-Ltmp127     ##   Call between Ltmp127 and Lfunc_end8
	.byte	0                       ##     has no landing pad
	.byte	0                       ##   On action: cleanup
Lcst_end8:
	.p2align	2
                                        ## -- End function
	.section	__TEXT,__text,regular,pure_instructions
	.p2align	4, 0x90         ## -- Begin function _ZNSt3__114basic_ifstreamIcNS_11char_traitsIcEEEC1ERKNS_12basic_stringIcS2_NS_9allocatorIcEEEEj
__ZNSt3__114basic_ifstreamIcNS_11char_traitsIcEEEC1ERKNS_12basic_stringIcS2_NS_9allocatorIcEEEEj: ## @_ZNSt3__114basic_ifstreamIcNS_11char_traitsIcEEEC1ERKNS_12basic_stringIcS2_NS_9allocatorIcEEEEj
Lfunc_begin9:
	.cfi_startproc
	.cfi_personality 155, ___gxx_personality_v0
	.cfi_lsda 16, Lexception9
## %bb.0:
	pushq	%rbp
	.cfi_def_cfa_offset 16
	.cfi_offset %rbp, -16
	movq	%rsp, %rbp
	.cfi_def_cfa_register %rbp
	subq	$80, %rsp
	movq	%rdi, -8(%rbp)
	movq	%rsi, -16(%rbp)
	movl	%edx, -20(%rbp)
	movq	-8(%rbp), %rax
	movq	%rax, %rcx
	addq	$424, %rcx              ## imm = 0x1A8
	movq	%rcx, %rdi
	movq	%rax, -48(%rbp)         ## 8-byte Spill
	callq	__ZNSt3__19basic_iosIcNS_11char_traitsIcEEEC2Ev
	movq	__ZTVNSt3__114basic_ifstreamIcNS_11char_traitsIcEEEE@GOTPCREL(%rip), %rax
	movq	%rax, %rcx
	addq	$24, %rcx
	movq	-48(%rbp), %rsi         ## 8-byte Reload
	movq	%rcx, (%rsi)
	addq	$64, %rax
	movq	%rax, 424(%rsi)
	addq	$16, %rsi
Ltmp129:
	movq	__ZTTNSt3__114basic_ifstreamIcNS_11char_traitsIcEEEE@GOTPCREL(%rip), %rax
	addq	$8, %rax
	movq	-48(%rbp), %rdi         ## 8-byte Reload
	movq	%rsi, -56(%rbp)         ## 8-byte Spill
	movq	%rax, %rsi
	movq	-56(%rbp), %rdx         ## 8-byte Reload
	callq	__ZNSt3__113basic_istreamIcNS_11char_traitsIcEEEC2EPNS_15basic_streambufIcS2_EE
Ltmp130:
	jmp	LBB25_1
LBB25_1:
	movq	__ZTVNSt3__114basic_ifstreamIcNS_11char_traitsIcEEEE@GOTPCREL(%rip), %rax
	movq	%rax, %rcx
	addq	$24, %rcx
	movq	-48(%rbp), %rdx         ## 8-byte Reload
	movq	%rcx, (%rdx)
	addq	$64, %rax
	movq	%rax, 424(%rdx)
	addq	$16, %rdx
Ltmp132:
	movq	%rdx, %rdi
	movq	%rdx, -64(%rbp)         ## 8-byte Spill
	callq	__ZNSt3__113basic_filebufIcNS_11char_traitsIcEEEC1Ev
Ltmp133:
	jmp	LBB25_2
LBB25_2:
	movq	-48(%rbp), %rax         ## 8-byte Reload
	addq	$16, %rax
	movq	-16(%rbp), %rsi
	movl	-20(%rbp), %ecx
	orl	$8, %ecx
Ltmp135:
	movq	%rax, %rdi
	movl	%ecx, %edx
	callq	__ZNSt3__113basic_filebufIcNS_11char_traitsIcEEE4openERKNS_12basic_stringIcS2_NS_9allocatorIcEEEEj
Ltmp136:
	movq	%rax, -72(%rbp)         ## 8-byte Spill
	jmp	LBB25_3
LBB25_3:
	movq	-72(%rbp), %rax         ## 8-byte Reload
	cmpq	$0, %rax
	jne	LBB25_9
## %bb.4:
	movq	-48(%rbp), %rax         ## 8-byte Reload
	movq	(%rax), %rcx
	movq	-24(%rcx), %rcx
	addq	%rcx, %rax
Ltmp137:
	movl	$4, %esi
	movq	%rax, %rdi
	callq	__ZNSt3__19basic_iosIcNS_11char_traitsIcEEE8setstateEj
Ltmp138:
	jmp	LBB25_5
LBB25_5:
	jmp	LBB25_9
LBB25_6:
Ltmp131:
                                        ## kill: def $edx killed $edx killed $rdx
	movq	%rax, -32(%rbp)
	movl	%edx, -36(%rbp)
	jmp	LBB25_11
LBB25_7:
Ltmp134:
                                        ## kill: def $edx killed $edx killed $rdx
	movq	%rax, -32(%rbp)
	movl	%edx, -36(%rbp)
	jmp	LBB25_10
LBB25_8:
Ltmp139:
                                        ## kill: def $edx killed $edx killed $rdx
	movq	%rax, -32(%rbp)
	movl	%edx, -36(%rbp)
	movq	-64(%rbp), %rdi         ## 8-byte Reload
	callq	__ZNSt3__113basic_filebufIcNS_11char_traitsIcEEED1Ev
	jmp	LBB25_10
LBB25_9:
	addq	$80, %rsp
	popq	%rbp
	retq
LBB25_10:
	movq	__ZTTNSt3__114basic_ifstreamIcNS_11char_traitsIcEEEE@GOTPCREL(%rip), %rax
	addq	$8, %rax
	movq	-48(%rbp), %rcx         ## 8-byte Reload
	movq	%rcx, %rdi
	movq	%rax, %rsi
	callq	__ZNSt3__113basic_istreamIcNS_11char_traitsIcEEED2Ev
LBB25_11:
	movq	-48(%rbp), %rax         ## 8-byte Reload
	addq	$424, %rax              ## imm = 0x1A8
	movq	%rax, %rdi
	callq	__ZNSt3__19basic_iosIcNS_11char_traitsIcEEED2Ev
## %bb.12:
	movq	-32(%rbp), %rdi
	callq	__Unwind_Resume
	ud2
Lfunc_end9:
	.cfi_endproc
	.section	__TEXT,__gcc_except_tab
	.p2align	2
GCC_except_table25:
Lexception9:
	.byte	255                     ## @LPStart Encoding = omit
	.byte	255                     ## @TType Encoding = omit
	.byte	1                       ## Call site Encoding = uleb128
	.uleb128 Lcst_end9-Lcst_begin9
Lcst_begin9:
	.uleb128 Lfunc_begin9-Lfunc_begin9 ## >> Call Site 1 <<
	.uleb128 Ltmp129-Lfunc_begin9   ##   Call between Lfunc_begin9 and Ltmp129
	.byte	0                       ##     has no landing pad
	.byte	0                       ##   On action: cleanup
	.uleb128 Ltmp129-Lfunc_begin9   ## >> Call Site 2 <<
	.uleb128 Ltmp130-Ltmp129        ##   Call between Ltmp129 and Ltmp130
	.uleb128 Ltmp131-Lfunc_begin9   ##     jumps to Ltmp131
	.byte	0                       ##   On action: cleanup
	.uleb128 Ltmp132-Lfunc_begin9   ## >> Call Site 3 <<
	.uleb128 Ltmp133-Ltmp132        ##   Call between Ltmp132 and Ltmp133
	.uleb128 Ltmp134-Lfunc_begin9   ##     jumps to Ltmp134
	.byte	0                       ##   On action: cleanup
	.uleb128 Ltmp135-Lfunc_begin9   ## >> Call Site 4 <<
	.uleb128 Ltmp138-Ltmp135        ##   Call between Ltmp135 and Ltmp138
	.uleb128 Ltmp139-Lfunc_begin9   ##     jumps to Ltmp139
	.byte	0                       ##   On action: cleanup
	.uleb128 Ltmp138-Lfunc_begin9   ## >> Call Site 5 <<
	.uleb128 Lfunc_end9-Ltmp138     ##   Call between Ltmp138 and Lfunc_end9
	.byte	0                       ##     has no landing pad
	.byte	0                       ##   On action: cleanup
Lcst_end9:
	.p2align	2
                                        ## -- End function
	.section	__TEXT,__text,regular,pure_instructions
	.p2align	4, 0x90         ## -- Begin function _ZNKSt3__114basic_ifstreamIcNS_11char_traitsIcEEE7is_openEv
__ZNKSt3__114basic_ifstreamIcNS_11char_traitsIcEEE7is_openEv: ## @_ZNKSt3__114basic_ifstreamIcNS_11char_traitsIcEEE7is_openEv
	.cfi_startproc
## %bb.0:
	pushq	%rbp
	.cfi_def_cfa_offset 16
	.cfi_offset %rbp, -16
	movq	%rsp, %rbp
	.cfi_def_cfa_register %rbp
	subq	$16, %rsp
	movq	%rdi, -8(%rbp)
	movq	-8(%rbp), %rax
	addq	$16, %rax
	movq	%rax, %rdi
	callq	__ZNKSt3__113basic_filebufIcNS_11char_traitsIcEEE7is_openEv
	andb	$1, %al
	movzbl	%al, %eax
	addq	$16, %rsp
	popq	%rbp
	retq
	.cfi_endproc
                                        ## -- End function
	.p2align	4, 0x90         ## -- Begin function _ZNSt3__1L7getlineIcNS_11char_traitsIcEENS_9allocatorIcEEEERNS_13basic_istreamIT_T0_EES9_RNS_12basic_stringIS6_S7_T1_EE
__ZNSt3__1L7getlineIcNS_11char_traitsIcEENS_9allocatorIcEEEERNS_13basic_istreamIT_T0_EES9_RNS_12basic_stringIS6_S7_T1_EE: ## @_ZNSt3__1L7getlineIcNS_11char_traitsIcEENS_9allocatorIcEEEERNS_13basic_istreamIT_T0_EES9_RNS_12basic_stringIS6_S7_T1_EE
	.cfi_startproc
## %bb.0:
	pushq	%rbp
	.cfi_def_cfa_offset 16
	.cfi_offset %rbp, -16
	movq	%rsp, %rbp
	.cfi_def_cfa_register %rbp
	subq	$32, %rsp
	movq	%rdi, -8(%rbp)
	movq	%rsi, -16(%rbp)
	movq	-8(%rbp), %rdi
	movq	-16(%rbp), %rsi
	movq	-8(%rbp), %rax
	movq	(%rax), %rcx
	movq	-24(%rcx), %rcx
	addq	%rcx, %rax
	movq	%rdi, -24(%rbp)         ## 8-byte Spill
	movq	%rax, %rdi
	movl	$10, %edx
	movq	%rsi, -32(%rbp)         ## 8-byte Spill
	movl	%edx, %esi
	callq	__ZNKSt3__19basic_iosIcNS_11char_traitsIcEEE5widenEc
	movq	-24(%rbp), %rdi         ## 8-byte Reload
	movq	-32(%rbp), %rsi         ## 8-byte Reload
	movsbl	%al, %edx
	callq	__ZNSt3__17getlineIcNS_11char_traitsIcEENS_9allocatorIcEEEERNS_13basic_istreamIT_T0_EES9_RNS_12basic_stringIS6_S7_T1_EES6_
	addq	$32, %rsp
	popq	%rbp
	retq
	.cfi_endproc
                                        ## -- End function
	.p2align	4, 0x90         ## -- Begin function _ZNKSt3__19basic_iosIcNS_11char_traitsIcEEEcvbEv
__ZNKSt3__19basic_iosIcNS_11char_traitsIcEEEcvbEv: ## @_ZNKSt3__19basic_iosIcNS_11char_traitsIcEEEcvbEv
	.cfi_startproc
## %bb.0:
	pushq	%rbp
	.cfi_def_cfa_offset 16
	.cfi_offset %rbp, -16
	movq	%rsp, %rbp
	.cfi_def_cfa_register %rbp
	subq	$16, %rsp
	movq	%rdi, -8(%rbp)
	movq	-8(%rbp), %rdi
	callq	__ZNKSt3__19basic_iosIcNS_11char_traitsIcEEE4failEv
	xorb	$-1, %al
	andb	$1, %al
	movzbl	%al, %eax
	addq	$16, %rsp
	popq	%rbp
	retq
	.cfi_endproc
                                        ## -- End function
	.p2align	4, 0x90         ## -- Begin function _ZNSt3__112basic_stringIcNS_11char_traitsIcEENS_9allocatorIcEEEixEm
__ZNSt3__112basic_stringIcNS_11char_traitsIcEENS_9allocatorIcEEEixEm: ## @_ZNSt3__112basic_stringIcNS_11char_traitsIcEENS_9allocatorIcEEEixEm
	.cfi_startproc
## %bb.0:
	pushq	%rbp
	.cfi_def_cfa_offset 16
	.cfi_offset %rbp, -16
	movq	%rsp, %rbp
	.cfi_def_cfa_register %rbp
	subq	$16, %rsp
	movq	%rdi, -8(%rbp)
	movq	%rsi, -16(%rbp)
	movq	-8(%rbp), %rdi
	callq	__ZNSt3__112basic_stringIcNS_11char_traitsIcEENS_9allocatorIcEEE13__get_pointerEv
	addq	-16(%rbp), %rax
	addq	$16, %rsp
	popq	%rbp
	retq
	.cfi_endproc
                                        ## -- End function
	.p2align	4, 0x90         ## -- Begin function _ZNSt3__114basic_ifstreamIcNS_11char_traitsIcEEE5closeEv
__ZNSt3__114basic_ifstreamIcNS_11char_traitsIcEEE5closeEv: ## @_ZNSt3__114basic_ifstreamIcNS_11char_traitsIcEEE5closeEv
	.cfi_startproc
## %bb.0:
	pushq	%rbp
	.cfi_def_cfa_offset 16
	.cfi_offset %rbp, -16
	movq	%rsp, %rbp
	.cfi_def_cfa_register %rbp
	subq	$16, %rsp
	movq	%rdi, -8(%rbp)
	movq	-8(%rbp), %rax
	movq	%rax, %rcx
	addq	$16, %rcx
	movq	%rcx, %rdi
	movq	%rax, -16(%rbp)         ## 8-byte Spill
	callq	__ZNSt3__113basic_filebufIcNS_11char_traitsIcEEE5closeEv
	cmpq	$0, %rax
	jne	LBB30_2
## %bb.1:
	movq	-16(%rbp), %rax         ## 8-byte Reload
	movq	(%rax), %rcx
	movq	-24(%rcx), %rcx
	addq	%rcx, %rax
	movq	%rax, %rdi
	movl	$4, %esi
	callq	__ZNSt3__19basic_iosIcNS_11char_traitsIcEEE8setstateEj
LBB30_2:
	addq	$16, %rsp
	popq	%rbp
	retq
	.cfi_endproc
                                        ## -- End function
	.globl	__Z7containNSt3__112basic_stringIcNS_11char_traitsIcEENS_9allocatorIcEEEEc ## -- Begin function _Z7containNSt3__112basic_stringIcNS_11char_traitsIcEENS_9allocatorIcEEEEc
	.p2align	4, 0x90
__Z7containNSt3__112basic_stringIcNS_11char_traitsIcEENS_9allocatorIcEEEEc: ## @_Z7containNSt3__112basic_stringIcNS_11char_traitsIcEENS_9allocatorIcEEEEc
	.cfi_startproc
## %bb.0:
	pushq	%rbp
	.cfi_def_cfa_offset 16
	.cfi_offset %rbp, -16
	movq	%rsp, %rbp
	.cfi_def_cfa_register %rbp
	subq	$32, %rsp
                                        ## kill: def $sil killed $sil killed $esi
	movb	%sil, -2(%rbp)
	movl	$0, -8(%rbp)
	movq	%rdi, -16(%rbp)         ## 8-byte Spill
LBB31_1:                                ## =>This Inner Loop Header: Depth=1
	movslq	-8(%rbp), %rax
	movq	-16(%rbp), %rdi         ## 8-byte Reload
	movq	%rax, -24(%rbp)         ## 8-byte Spill
	callq	__ZNKSt3__112basic_stringIcNS_11char_traitsIcEENS_9allocatorIcEEE4sizeEv
	movq	-24(%rbp), %rcx         ## 8-byte Reload
	cmpq	%rax, %rcx
	jae	LBB31_6
## %bb.2:                               ##   in Loop: Header=BB31_1 Depth=1
	movslq	-8(%rbp), %rsi
	movq	-16(%rbp), %rdi         ## 8-byte Reload
	callq	__ZNSt3__112basic_stringIcNS_11char_traitsIcEENS_9allocatorIcEEEixEm
	movsbl	(%rax), %ecx
	movsbl	-2(%rbp), %edx
	cmpl	%edx, %ecx
	jne	LBB31_4
## %bb.3:
	movb	$1, -1(%rbp)
	jmp	LBB31_7
LBB31_4:                                ##   in Loop: Header=BB31_1 Depth=1
	jmp	LBB31_5
LBB31_5:                                ##   in Loop: Header=BB31_1 Depth=1
	movl	-8(%rbp), %eax
	addl	$1, %eax
	movl	%eax, -8(%rbp)
	jmp	LBB31_1
LBB31_6:
	movb	$0, -1(%rbp)
LBB31_7:
	movb	-1(%rbp), %al
	andb	$1, %al
	movzbl	%al, %eax
	addq	$32, %rsp
	popq	%rbp
	retq
	.cfi_endproc
                                        ## -- End function
	.globl	__ZNSt3__1lsINS_11char_traitsIcEEEERNS_13basic_ostreamIcT_EES6_PKc ## -- Begin function _ZNSt3__1lsINS_11char_traitsIcEEEERNS_13basic_ostreamIcT_EES6_PKc
	.weak_definition	__ZNSt3__1lsINS_11char_traitsIcEEEERNS_13basic_ostreamIcT_EES6_PKc
	.p2align	4, 0x90
__ZNSt3__1lsINS_11char_traitsIcEEEERNS_13basic_ostreamIcT_EES6_PKc: ## @_ZNSt3__1lsINS_11char_traitsIcEEEERNS_13basic_ostreamIcT_EES6_PKc
	.cfi_startproc
## %bb.0:
	pushq	%rbp
	.cfi_def_cfa_offset 16
	.cfi_offset %rbp, -16
	movq	%rsp, %rbp
	.cfi_def_cfa_register %rbp
	subq	$32, %rsp
	movq	%rdi, -8(%rbp)
	movq	%rsi, -16(%rbp)
	movq	-8(%rbp), %rdi
	movq	-16(%rbp), %rsi
	movq	-16(%rbp), %rax
	movq	%rdi, -24(%rbp)         ## 8-byte Spill
	movq	%rax, %rdi
	movq	%rsi, -32(%rbp)         ## 8-byte Spill
	callq	__ZNSt3__111char_traitsIcE6lengthEPKc
	movq	-24(%rbp), %rdi         ## 8-byte Reload
	movq	-32(%rbp), %rsi         ## 8-byte Reload
	movq	%rax, %rdx
	callq	__ZNSt3__124__put_character_sequenceIcNS_11char_traitsIcEEEERNS_13basic_ostreamIT_T0_EES7_PKS4_m
	addq	$32, %rsp
	popq	%rbp
	retq
	.cfi_endproc
                                        ## -- End function
	.globl	__ZNSt3__1lsIcNS_11char_traitsIcEENS_9allocatorIcEEEERNS_13basic_ostreamIT_T0_EES9_RKNS_12basic_stringIS6_S7_T1_EE ## -- Begin function _ZNSt3__1lsIcNS_11char_traitsIcEENS_9allocatorIcEEEERNS_13basic_ostreamIT_T0_EES9_RKNS_12basic_stringIS6_S7_T1_EE
	.weak_definition	__ZNSt3__1lsIcNS_11char_traitsIcEENS_9allocatorIcEEEERNS_13basic_ostreamIT_T0_EES9_RKNS_12basic_stringIS6_S7_T1_EE
	.p2align	4, 0x90
__ZNSt3__1lsIcNS_11char_traitsIcEENS_9allocatorIcEEEERNS_13basic_ostreamIT_T0_EES9_RKNS_12basic_stringIS6_S7_T1_EE: ## @_ZNSt3__1lsIcNS_11char_traitsIcEENS_9allocatorIcEEEERNS_13basic_ostreamIT_T0_EES9_RKNS_12basic_stringIS6_S7_T1_EE
	.cfi_startproc
## %bb.0:
	pushq	%rbp
	.cfi_def_cfa_offset 16
	.cfi_offset %rbp, -16
	movq	%rsp, %rbp
	.cfi_def_cfa_register %rbp
	subq	$32, %rsp
	movq	%rdi, -8(%rbp)
	movq	%rsi, -16(%rbp)
	movq	-8(%rbp), %rdi
	movq	-16(%rbp), %rax
	movq	%rdi, -24(%rbp)         ## 8-byte Spill
	movq	%rax, %rdi
	callq	__ZNKSt3__112basic_stringIcNS_11char_traitsIcEENS_9allocatorIcEEE4dataEv
	movq	-16(%rbp), %rdi
	movq	%rax, -32(%rbp)         ## 8-byte Spill
	callq	__ZNKSt3__112basic_stringIcNS_11char_traitsIcEENS_9allocatorIcEEE4sizeEv
	movq	-24(%rbp), %rdi         ## 8-byte Reload
	movq	-32(%rbp), %rsi         ## 8-byte Reload
	movq	%rax, %rdx
	callq	__ZNSt3__124__put_character_sequenceIcNS_11char_traitsIcEEEERNS_13basic_ostreamIT_T0_EES7_PKS4_m
	addq	$32, %rsp
	popq	%rbp
	retq
	.cfi_endproc
                                        ## -- End function
	.p2align	4, 0x90         ## -- Begin function _ZNSt3__113basic_ostreamIcNS_11char_traitsIcEEElsEPFRS3_S4_E
__ZNSt3__113basic_ostreamIcNS_11char_traitsIcEEElsEPFRS3_S4_E: ## @_ZNSt3__113basic_ostreamIcNS_11char_traitsIcEEElsEPFRS3_S4_E
	.cfi_startproc
## %bb.0:
	pushq	%rbp
	.cfi_def_cfa_offset 16
	.cfi_offset %rbp, -16
	movq	%rsp, %rbp
	.cfi_def_cfa_register %rbp
	subq	$16, %rsp
	movq	%rdi, -8(%rbp)
	movq	%rsi, -16(%rbp)
	movq	-8(%rbp), %rdi
	callq	*-16(%rbp)
	addq	$16, %rsp
	popq	%rbp
	retq
	.cfi_endproc
                                        ## -- End function
	.p2align	4, 0x90         ## -- Begin function _ZNSt3__1L4endlIcNS_11char_traitsIcEEEERNS_13basic_ostreamIT_T0_EES7_
__ZNSt3__1L4endlIcNS_11char_traitsIcEEEERNS_13basic_ostreamIT_T0_EES7_: ## @_ZNSt3__1L4endlIcNS_11char_traitsIcEEEERNS_13basic_ostreamIT_T0_EES7_
	.cfi_startproc
## %bb.0:
	pushq	%rbp
	.cfi_def_cfa_offset 16
	.cfi_offset %rbp, -16
	movq	%rsp, %rbp
	.cfi_def_cfa_register %rbp
	subq	$32, %rsp
	movq	%rdi, -8(%rbp)
	movq	-8(%rbp), %rdi
	movq	-8(%rbp), %rax
	movq	(%rax), %rcx
	movq	-24(%rcx), %rcx
	addq	%rcx, %rax
	movq	%rdi, -16(%rbp)         ## 8-byte Spill
	movq	%rax, %rdi
	movl	$10, %esi
	callq	__ZNKSt3__19basic_iosIcNS_11char_traitsIcEEE5widenEc
	movq	-16(%rbp), %rdi         ## 8-byte Reload
	movsbl	%al, %esi
	callq	__ZNSt3__113basic_ostreamIcNS_11char_traitsIcEEE3putEc
	movq	-8(%rbp), %rdi
	movq	%rax, -24(%rbp)         ## 8-byte Spill
	callq	__ZNSt3__113basic_ostreamIcNS_11char_traitsIcEEE5flushEv
	movq	-8(%rbp), %rcx
	movq	%rax, -32(%rbp)         ## 8-byte Spill
	movq	%rcx, %rax
	addq	$32, %rsp
	popq	%rbp
	retq
	.cfi_endproc
                                        ## -- End function
	.globl	__ZNSt3__114basic_ifstreamIcNS_11char_traitsIcEEED1Ev ## -- Begin function _ZNSt3__114basic_ifstreamIcNS_11char_traitsIcEEED1Ev
	.weak_def_can_be_hidden	__ZNSt3__114basic_ifstreamIcNS_11char_traitsIcEEED1Ev
	.p2align	4, 0x90
__ZNSt3__114basic_ifstreamIcNS_11char_traitsIcEEED1Ev: ## @_ZNSt3__114basic_ifstreamIcNS_11char_traitsIcEEED1Ev
	.cfi_startproc
## %bb.0:
	pushq	%rbp
	.cfi_def_cfa_offset 16
	.cfi_offset %rbp, -16
	movq	%rsp, %rbp
	.cfi_def_cfa_register %rbp
	subq	$16, %rsp
	movq	__ZTTNSt3__114basic_ifstreamIcNS_11char_traitsIcEEEE@GOTPCREL(%rip), %rsi
	movq	%rdi, -8(%rbp)
	movq	-8(%rbp), %rax
	movq	%rax, %rdi
	movq	%rax, -16(%rbp)         ## 8-byte Spill
	callq	__ZNSt3__114basic_ifstreamIcNS_11char_traitsIcEEED2Ev
	movq	-16(%rbp), %rax         ## 8-byte Reload
	addq	$424, %rax              ## imm = 0x1A8
	movq	%rax, %rdi
	callq	__ZNSt3__19basic_iosIcNS_11char_traitsIcEEED2Ev
	addq	$16, %rsp
	popq	%rbp
	retq
	.cfi_endproc
                                        ## -- End function
	.globl	__Z2ASNSt3__112basic_stringIcNS_11char_traitsIcEENS_9allocatorIcEEEE ## -- Begin function _Z2ASNSt3__112basic_stringIcNS_11char_traitsIcEENS_9allocatorIcEEEE
	.p2align	4, 0x90
__Z2ASNSt3__112basic_stringIcNS_11char_traitsIcEENS_9allocatorIcEEEE: ## @_Z2ASNSt3__112basic_stringIcNS_11char_traitsIcEENS_9allocatorIcEEEE
Lfunc_begin10:
	.cfi_startproc
	.cfi_personality 155, ___gxx_personality_v0
	.cfi_lsda 16, Lexception10
## %bb.0:
	pushq	%rbp
	.cfi_def_cfa_offset 16
	.cfi_offset %rbp, -16
	movq	%rsp, %rbp
	.cfi_def_cfa_register %rbp
	subq	$112, %rsp
	movq	%rdi, %rax
	leaq	-24(%rbp), %rcx
	movq	%rdi, -80(%rbp)         ## 8-byte Spill
	movq	%rcx, %rdi
	movq	%rsi, -88(%rbp)         ## 8-byte Spill
	movq	%rax, -96(%rbp)         ## 8-byte Spill
	movq	%rcx, -104(%rbp)        ## 8-byte Spill
	callq	__ZNSt3__16vectorINS_12basic_stringIcNS_11char_traitsIcEENS_9allocatorIcEEEENS4_IS6_EEEC1Ev
Ltmp140:
	movl	$47, %edx
	movq	-88(%rbp), %rdi         ## 8-byte Reload
	movq	-104(%rbp), %rsi        ## 8-byte Reload
	callq	__Z5splitRKNSt3__112basic_stringIcNS_11char_traitsIcEENS_9allocatorIcEEEERNS_6vectorIS5_NS3_IS5_EEEEc
Ltmp141:
	jmp	LBB37_1
LBB37_1:
	movb	$0, -37(%rbp)
Ltmp142:
	leaq	L_.str.3(%rip), %rsi
	movq	-80(%rbp), %rdi         ## 8-byte Reload
	callq	__ZNSt3__112basic_stringIcNS_11char_traitsIcEENS_9allocatorIcEEEC1IDnEEPKc
Ltmp143:
	jmp	LBB37_2
LBB37_2:
	movl	$0, -44(%rbp)
LBB37_3:                                ## =>This Inner Loop Header: Depth=1
	movslq	-44(%rbp), %rax
	leaq	-24(%rbp), %rdi
	movq	%rax, -112(%rbp)        ## 8-byte Spill
	callq	__ZNKSt3__16vectorINS_12basic_stringIcNS_11char_traitsIcEENS_9allocatorIcEEEENS4_IS6_EEE4sizeEv
	subq	$1, %rax
	movq	-112(%rbp), %rcx        ## 8-byte Reload
	cmpq	%rax, %rcx
	jae	LBB37_11
## %bb.4:                               ##   in Loop: Header=BB37_3 Depth=1
	movslq	-44(%rbp), %rsi
	leaq	-24(%rbp), %rdi
	callq	__ZNSt3__16vectorINS_12basic_stringIcNS_11char_traitsIcEENS_9allocatorIcEEEENS4_IS6_EEEixEm
Ltmp145:
	leaq	-72(%rbp), %rdi
	movl	$47, %edx
	movq	%rax, %rsi
	callq	__ZNSt3__1plIcNS_11char_traitsIcEENS_9allocatorIcEEEENS_12basic_stringIT_T0_T1_EERKS9_S6_
Ltmp146:
	jmp	LBB37_5
LBB37_5:                                ##   in Loop: Header=BB37_3 Depth=1
Ltmp148:
	leaq	-72(%rbp), %rsi
	movq	-80(%rbp), %rdi         ## 8-byte Reload
	callq	__ZNSt3__112basic_stringIcNS_11char_traitsIcEENS_9allocatorIcEEEpLERKS5_
Ltmp149:
	jmp	LBB37_6
LBB37_6:                                ##   in Loop: Header=BB37_3 Depth=1
	leaq	-72(%rbp), %rdi
	callq	__ZNSt3__112basic_stringIcNS_11char_traitsIcEENS_9allocatorIcEEED1Ev
## %bb.7:                               ##   in Loop: Header=BB37_3 Depth=1
	movl	-44(%rbp), %eax
	addl	$1, %eax
	movl	%eax, -44(%rbp)
	jmp	LBB37_3
LBB37_8:
Ltmp144:
                                        ## kill: def $edx killed $edx killed $rdx
	movq	%rax, -32(%rbp)
	movl	%edx, -36(%rbp)
	jmp	LBB37_15
LBB37_9:
Ltmp147:
                                        ## kill: def $edx killed $edx killed $rdx
	movq	%rax, -32(%rbp)
	movl	%edx, -36(%rbp)
	jmp	LBB37_14
LBB37_10:
Ltmp150:
                                        ## kill: def $edx killed $edx killed $rdx
	movq	%rax, -32(%rbp)
	movl	%edx, -36(%rbp)
	leaq	-72(%rbp), %rdi
	callq	__ZNSt3__112basic_stringIcNS_11char_traitsIcEENS_9allocatorIcEEED1Ev
	jmp	LBB37_14
LBB37_11:
	movb	$1, -37(%rbp)
	testb	$1, -37(%rbp)
	jne	LBB37_13
## %bb.12:
	movq	-80(%rbp), %rdi         ## 8-byte Reload
	callq	__ZNSt3__112basic_stringIcNS_11char_traitsIcEENS_9allocatorIcEEED1Ev
LBB37_13:
	leaq	-24(%rbp), %rdi
	callq	__ZNSt3__16vectorINS_12basic_stringIcNS_11char_traitsIcEENS_9allocatorIcEEEENS4_IS6_EEED1Ev
	movq	-96(%rbp), %rax         ## 8-byte Reload
	addq	$112, %rsp
	popq	%rbp
	retq
LBB37_14:
	movq	-80(%rbp), %rdi         ## 8-byte Reload
	callq	__ZNSt3__112basic_stringIcNS_11char_traitsIcEENS_9allocatorIcEEED1Ev
LBB37_15:
	leaq	-24(%rbp), %rdi
	callq	__ZNSt3__16vectorINS_12basic_stringIcNS_11char_traitsIcEENS_9allocatorIcEEEENS4_IS6_EEED1Ev
## %bb.16:
	movq	-32(%rbp), %rdi
	callq	__Unwind_Resume
	ud2
Lfunc_end10:
	.cfi_endproc
	.section	__TEXT,__gcc_except_tab
	.p2align	2
GCC_except_table37:
Lexception10:
	.byte	255                     ## @LPStart Encoding = omit
	.byte	255                     ## @TType Encoding = omit
	.byte	1                       ## Call site Encoding = uleb128
	.uleb128 Lcst_end10-Lcst_begin10
Lcst_begin10:
	.uleb128 Ltmp140-Lfunc_begin10  ## >> Call Site 1 <<
	.uleb128 Ltmp143-Ltmp140        ##   Call between Ltmp140 and Ltmp143
	.uleb128 Ltmp144-Lfunc_begin10  ##     jumps to Ltmp144
	.byte	0                       ##   On action: cleanup
	.uleb128 Ltmp145-Lfunc_begin10  ## >> Call Site 2 <<
	.uleb128 Ltmp146-Ltmp145        ##   Call between Ltmp145 and Ltmp146
	.uleb128 Ltmp147-Lfunc_begin10  ##     jumps to Ltmp147
	.byte	0                       ##   On action: cleanup
	.uleb128 Ltmp148-Lfunc_begin10  ## >> Call Site 3 <<
	.uleb128 Ltmp149-Ltmp148        ##   Call between Ltmp148 and Ltmp149
	.uleb128 Ltmp150-Lfunc_begin10  ##     jumps to Ltmp150
	.byte	0                       ##   On action: cleanup
	.uleb128 Ltmp149-Lfunc_begin10  ## >> Call Site 4 <<
	.uleb128 Lfunc_end10-Ltmp149    ##   Call between Ltmp149 and Lfunc_end10
	.byte	0                       ##     has no landing pad
	.byte	0                       ##   On action: cleanup
Lcst_end10:
	.p2align	2
                                        ## -- End function
	.section	__TEXT,__text,regular,pure_instructions
	.globl	__Z7compileP4MSTSS0_S0_NSt3__112basic_stringIcNS1_11char_traitsIcEENS1_9allocatorIcEEEES0_S0_S7_S0_ ## -- Begin function _Z7compileP4MSTSS0_S0_NSt3__112basic_stringIcNS1_11char_traitsIcEENS1_9allocatorIcEEEES0_S0_S7_S0_
	.p2align	4, 0x90
__Z7compileP4MSTSS0_S0_NSt3__112basic_stringIcNS1_11char_traitsIcEENS1_9allocatorIcEEEES0_S0_S7_S0_: ## @_Z7compileP4MSTSS0_S0_NSt3__112basic_stringIcNS1_11char_traitsIcEENS1_9allocatorIcEEEES0_S0_S7_S0_
Lfunc_begin11:
	.cfi_startproc
	.cfi_personality 155, ___gxx_personality_v0
	.cfi_lsda 16, Lexception11
## %bb.0:
	pushq	%rbp
	.cfi_def_cfa_offset 16
	.cfi_offset %rbp, -16
	movq	%rsp, %rbp
	.cfi_def_cfa_register %rbp
	subq	$1904, %rsp             ## imm = 0x770
	movq	24(%rbp), %rax
	movq	16(%rbp), %r10
	movq	%rdi, -8(%rbp)
	movq	%rsi, -16(%rbp)
	movq	%rdx, -24(%rbp)
	movq	%r8, -32(%rbp)
	movq	%r9, -40(%rbp)
	leaq	-64(%rbp), %rdi
	movq	%rcx, -1304(%rbp)       ## 8-byte Spill
	movq	%rax, -1312(%rbp)       ## 8-byte Spill
	movq	%r10, -1320(%rbp)       ## 8-byte Spill
	callq	__ZNSt3__16vectorINS_12basic_stringIcNS_11char_traitsIcEENS_9allocatorIcEEEENS4_IS6_EEEC1Ev
	leaq	-88(%rbp), %rdi
	callq	__ZNSt3__16vectorINS_12basic_stringIcNS_11char_traitsIcEENS_9allocatorIcEEEENS4_IS6_EEEC1Ev
	leaq	-112(%rbp), %rdi
	callq	__ZNSt3__16vectorINS_12basic_stringIcNS_11char_traitsIcEENS_9allocatorIcEEEENS4_IS6_EEEC1Ev
	leaq	-136(%rbp), %rax
	movq	%rax, %rdi
	movq	%rax, -1328(%rbp)       ## 8-byte Spill
	callq	__ZNSt3__16vectorINS_12basic_stringIcNS_11char_traitsIcEENS_9allocatorIcEEEENS4_IS6_EEEC1Ev
	leaq	-160(%rbp), %rdi
	callq	__ZNSt3__16vectorINS_12basic_stringIcNS_11char_traitsIcEENS_9allocatorIcEEEENS4_IS6_EEEC1Ev
	movq	-24(%rbp), %rax
	addq	$48, %rax
Ltmp151:
	movl	$32, %edx
	movq	%rax, %rdi
	movq	-1328(%rbp), %rsi       ## 8-byte Reload
	callq	__Z5splitRKNSt3__112basic_stringIcNS_11char_traitsIcEENS_9allocatorIcEEEERNS_6vectorIS5_NS3_IS5_EEEEc
Ltmp152:
	jmp	LBB38_1
LBB38_1:
	movq	-8(%rbp), %rax
	addq	$48, %rax
Ltmp153:
	leaq	-88(%rbp), %rsi
	movl	$32, %edx
	movq	%rax, %rdi
	callq	__Z5splitRKNSt3__112basic_stringIcNS_11char_traitsIcEENS_9allocatorIcEEEERNS_6vectorIS5_NS3_IS5_EEEEc
Ltmp154:
	jmp	LBB38_2
LBB38_2:
	movq	-16(%rbp), %rax
	addq	$48, %rax
Ltmp155:
	leaq	-112(%rbp), %rsi
	movl	$32, %edx
	movq	%rax, %rdi
	callq	__Z5splitRKNSt3__112basic_stringIcNS_11char_traitsIcEENS_9allocatorIcEEEERNS_6vectorIS5_NS3_IS5_EEEEc
Ltmp156:
	jmp	LBB38_3
LBB38_3:
	movq	24(%rbp), %rax
	addq	$48, %rax
Ltmp157:
	leaq	-160(%rbp), %rsi
	movl	$32, %edx
	movq	%rax, %rdi
	callq	__Z5splitRKNSt3__112basic_stringIcNS_11char_traitsIcEENS_9allocatorIcEEEERNS_6vectorIS5_NS3_IS5_EEEEc
Ltmp158:
	jmp	LBB38_4
LBB38_4:
	movq	-32(%rbp), %rax
	addq	$48, %rax
Ltmp159:
	leaq	-64(%rbp), %rsi
	movl	$32, %edx
	movq	%rax, %rdi
	callq	__Z5splitRKNSt3__112basic_stringIcNS_11char_traitsIcEENS_9allocatorIcEEEERNS_6vectorIS5_NS3_IS5_EEEEc
Ltmp160:
	jmp	LBB38_5
LBB38_5:
	movl	$0, -176(%rbp)
LBB38_6:                                ## =>This Loop Header: Depth=1
                                        ##     Child Loop BB38_9 Depth 2
	movslq	-176(%rbp), %rax
	leaq	-88(%rbp), %rdi
	movq	%rax, -1336(%rbp)       ## 8-byte Spill
	callq	__ZNKSt3__16vectorINS_12basic_stringIcNS_11char_traitsIcEENS_9allocatorIcEEEENS4_IS6_EEE4sizeEv
	movq	-1336(%rbp), %rcx       ## 8-byte Reload
	cmpq	%rax, %rcx
	jae	LBB38_23
## %bb.7:                               ##   in Loop: Header=BB38_6 Depth=1
	leaq	-200(%rbp), %rax
	movq	%rax, %rdi
	movq	%rax, -1344(%rbp)       ## 8-byte Spill
	callq	__ZNSt3__16vectorINS_12basic_stringIcNS_11char_traitsIcEENS_9allocatorIcEEEENS4_IS6_EEEC1Ev
	movslq	-176(%rbp), %rsi
	leaq	-88(%rbp), %rdi
	callq	__ZNSt3__16vectorINS_12basic_stringIcNS_11char_traitsIcEENS_9allocatorIcEEEENS4_IS6_EEEixEm
Ltmp405:
	movl	$47, %edx
	movq	%rax, %rdi
	movq	-1344(%rbp), %rsi       ## 8-byte Reload
	callq	__Z5splitRKNSt3__112basic_stringIcNS_11char_traitsIcEENS_9allocatorIcEEEERNS_6vectorIS5_NS3_IS5_EEEEc
Ltmp406:
	jmp	LBB38_8
LBB38_8:                                ##   in Loop: Header=BB38_6 Depth=1
	leaq	-224(%rbp), %rdi
	callq	__ZNSt3__112basic_stringIcNS_11char_traitsIcEENS_9allocatorIcEEEC1Ev
	movl	$0, -228(%rbp)
LBB38_9:                                ##   Parent Loop BB38_6 Depth=1
                                        ## =>  This Inner Loop Header: Depth=2
	movslq	-228(%rbp), %rax
	leaq	-200(%rbp), %rdi
	movq	%rax, -1352(%rbp)       ## 8-byte Spill
	callq	__ZNKSt3__16vectorINS_12basic_stringIcNS_11char_traitsIcEENS_9allocatorIcEEEENS4_IS6_EEE4sizeEv
	subq	$1, %rax
	movq	-1352(%rbp), %rcx       ## 8-byte Reload
	cmpq	%rax, %rcx
	jae	LBB38_18
## %bb.10:                              ##   in Loop: Header=BB38_9 Depth=2
	movslq	-228(%rbp), %rsi
	leaq	-200(%rbp), %rdi
	callq	__ZNSt3__16vectorINS_12basic_stringIcNS_11char_traitsIcEENS_9allocatorIcEEEENS4_IS6_EEEixEm
Ltmp410:
	leaq	-256(%rbp), %rdi
	movl	$47, %edx
	movq	%rax, %rsi
	callq	__ZNSt3__1plIcNS_11char_traitsIcEENS_9allocatorIcEEEENS_12basic_stringIT_T0_T1_EERKS9_S6_
Ltmp411:
	jmp	LBB38_11
LBB38_11:                               ##   in Loop: Header=BB38_9 Depth=2
Ltmp413:
	leaq	-224(%rbp), %rdi
	leaq	-256(%rbp), %rsi
	callq	__ZNSt3__112basic_stringIcNS_11char_traitsIcEENS_9allocatorIcEEEpLERKS5_
Ltmp414:
	jmp	LBB38_12
LBB38_12:                               ##   in Loop: Header=BB38_9 Depth=2
	leaq	-256(%rbp), %rdi
	callq	__ZNSt3__112basic_stringIcNS_11char_traitsIcEENS_9allocatorIcEEED1Ev
## %bb.13:                              ##   in Loop: Header=BB38_9 Depth=2
	movl	-228(%rbp), %eax
	addl	$1, %eax
	movl	%eax, -228(%rbp)
	jmp	LBB38_9
LBB38_14:
Ltmp161:
                                        ## kill: def $edx killed $edx killed $rdx
	movq	%rax, -168(%rbp)
	movl	%edx, -172(%rbp)
	jmp	LBB38_229
LBB38_15:
Ltmp407:
                                        ## kill: def $edx killed $edx killed $rdx
	movq	%rax, -168(%rbp)
	movl	%edx, -172(%rbp)
	jmp	LBB38_22
LBB38_16:
Ltmp412:
                                        ## kill: def $edx killed $edx killed $rdx
	movq	%rax, -168(%rbp)
	movl	%edx, -172(%rbp)
	jmp	LBB38_21
LBB38_17:
Ltmp415:
                                        ## kill: def $edx killed $edx killed $rdx
	movq	%rax, -168(%rbp)
	movl	%edx, -172(%rbp)
	leaq	-256(%rbp), %rdi
	callq	__ZNSt3__112basic_stringIcNS_11char_traitsIcEENS_9allocatorIcEEED1Ev
	jmp	LBB38_21
LBB38_18:                               ##   in Loop: Header=BB38_6 Depth=1
	leaq	-224(%rbp), %rdi
	callq	__ZNKSt3__112basic_stringIcNS_11char_traitsIcEENS_9allocatorIcEEE5c_strEv
Ltmp408:
	movq	%rax, %rdi
	callq	__Z15recursive_mkdirPKc
Ltmp409:
	jmp	LBB38_19
LBB38_19:                               ##   in Loop: Header=BB38_6 Depth=1
	leaq	-224(%rbp), %rdi
	callq	__ZNSt3__112basic_stringIcNS_11char_traitsIcEENS_9allocatorIcEEED1Ev
	leaq	-200(%rbp), %rdi
	callq	__ZNSt3__16vectorINS_12basic_stringIcNS_11char_traitsIcEENS_9allocatorIcEEEENS4_IS6_EEED1Ev
## %bb.20:                              ##   in Loop: Header=BB38_6 Depth=1
	movl	-176(%rbp), %eax
	addl	$1, %eax
	movl	%eax, -176(%rbp)
	jmp	LBB38_6
LBB38_21:
	leaq	-224(%rbp), %rdi
	callq	__ZNSt3__112basic_stringIcNS_11char_traitsIcEENS_9allocatorIcEEED1Ev
LBB38_22:
	leaq	-200(%rbp), %rdi
	callq	__ZNSt3__16vectorINS_12basic_stringIcNS_11char_traitsIcEENS_9allocatorIcEEEENS4_IS6_EEED1Ev
	jmp	LBB38_229
LBB38_23:
	leaq	-280(%rbp), %rdi
	callq	__ZNSt3__112basic_stringIcNS_11char_traitsIcEENS_9allocatorIcEEEC1Ev
	leaq	-304(%rbp), %rdi
	callq	__ZNSt3__112basic_stringIcNS_11char_traitsIcEENS_9allocatorIcEEEC1Ev
	movl	$0, -308(%rbp)
LBB38_24:                               ## =>This Loop Header: Depth=1
                                        ##     Child Loop BB38_30 Depth 2
	movslq	-308(%rbp), %rax
	leaq	-160(%rbp), %rdi
	movq	%rax, -1360(%rbp)       ## 8-byte Spill
	callq	__ZNKSt3__16vectorINS_12basic_stringIcNS_11char_traitsIcEENS_9allocatorIcEEEENS4_IS6_EEE4sizeEv
	movq	-1360(%rbp), %rcx       ## 8-byte Reload
	cmpq	%rax, %rcx
	jae	LBB38_59
## %bb.25:                              ##   in Loop: Header=BB38_24 Depth=1
	leaq	-336(%rbp), %rdi
	callq	__ZNSt3__16vectorINS_12basic_stringIcNS_11char_traitsIcEENS_9allocatorIcEEEENS4_IS6_EEEC1Ev
	movslq	-308(%rbp), %rsi
	leaq	-160(%rbp), %rdi
	callq	__ZNSt3__16vectorINS_12basic_stringIcNS_11char_traitsIcEENS_9allocatorIcEEEENS4_IS6_EEEixEm
Ltmp375:
	leaq	-384(%rbp), %rdi
	movq	%rax, %rsi
	callq	__ZNSt3__112basic_stringIcNS_11char_traitsIcEENS_9allocatorIcEEEC1ERKS5_
Ltmp376:
	jmp	LBB38_26
LBB38_26:                               ##   in Loop: Header=BB38_24 Depth=1
Ltmp377:
	leaq	L_.str.14(%rip), %rsi
	leaq	-408(%rbp), %rdi
	callq	__ZNSt3__112basic_stringIcNS_11char_traitsIcEENS_9allocatorIcEEEC1IDnEEPKc
Ltmp378:
	jmp	LBB38_27
LBB38_27:                               ##   in Loop: Header=BB38_24 Depth=1
Ltmp380:
	leaq	-360(%rbp), %rdi
	leaq	-384(%rbp), %rsi
	leaq	-408(%rbp), %rdx
	callq	__Z8Get_DataNSt3__112basic_stringIcNS_11char_traitsIcEENS_9allocatorIcEEEES5_
Ltmp381:
	jmp	LBB38_28
LBB38_28:                               ##   in Loop: Header=BB38_24 Depth=1
Ltmp383:
	leaq	-360(%rbp), %rdi
	leaq	-336(%rbp), %rsi
	movl	$32, %edx
	callq	__Z5splitRKNSt3__112basic_stringIcNS_11char_traitsIcEENS_9allocatorIcEEEERNS_6vectorIS5_NS3_IS5_EEEEc
Ltmp384:
	jmp	LBB38_29
LBB38_29:                               ##   in Loop: Header=BB38_24 Depth=1
	leaq	-360(%rbp), %rdi
	callq	__ZNSt3__112basic_stringIcNS_11char_traitsIcEENS_9allocatorIcEEED1Ev
	leaq	-408(%rbp), %rdi
	callq	__ZNSt3__112basic_stringIcNS_11char_traitsIcEENS_9allocatorIcEEED1Ev
	leaq	-384(%rbp), %rdi
	callq	__ZNSt3__112basic_stringIcNS_11char_traitsIcEENS_9allocatorIcEEED1Ev
	movl	$0, -412(%rbp)
LBB38_30:                               ##   Parent Loop BB38_24 Depth=1
                                        ## =>  This Inner Loop Header: Depth=2
	movslq	-412(%rbp), %rax
	leaq	-336(%rbp), %rdi
	movq	%rax, -1368(%rbp)       ## 8-byte Spill
	callq	__ZNKSt3__16vectorINS_12basic_stringIcNS_11char_traitsIcEENS_9allocatorIcEEEENS4_IS6_EEE4sizeEv
	movq	-1368(%rbp), %rcx       ## 8-byte Reload
	cmpq	%rax, %rcx
	jae	LBB38_56
## %bb.31:                              ##   in Loop: Header=BB38_30 Depth=2
	movslq	-412(%rbp), %rsi
	leaq	-336(%rbp), %rdi
	callq	__ZNSt3__16vectorINS_12basic_stringIcNS_11char_traitsIcEENS_9allocatorIcEEEENS4_IS6_EEEixEm
	movq	%rax, %rdi
	callq	__ZNKSt3__112basic_stringIcNS_11char_traitsIcEENS_9allocatorIcEEE5c_strEv
Ltmp386:
	leaq	L_.str.4(%rip), %rsi
	movq	%rax, %rdi
	callq	_strcmp
Ltmp387:
	movl	%eax, -1372(%rbp)       ## 4-byte Spill
	jmp	LBB38_32
LBB38_32:                               ##   in Loop: Header=BB38_30 Depth=2
	movl	-1372(%rbp), %eax       ## 4-byte Reload
	cmpl	$0, %eax
	je	LBB38_54
## %bb.33:                              ##   in Loop: Header=BB38_30 Depth=2
	movslq	-412(%rbp), %rsi
	leaq	-336(%rbp), %rdi
	callq	__ZNSt3__16vectorINS_12basic_stringIcNS_11char_traitsIcEENS_9allocatorIcEEEENS4_IS6_EEEixEm
	movq	%rax, %rdi
	callq	__ZNKSt3__112basic_stringIcNS_11char_traitsIcEENS_9allocatorIcEEE5c_strEv
Ltmp388:
	leaq	L_.str.3(%rip), %rsi
	movq	%rax, %rdi
	callq	_strcmp
Ltmp389:
	movl	%eax, -1376(%rbp)       ## 4-byte Spill
	jmp	LBB38_34
LBB38_34:                               ##   in Loop: Header=BB38_30 Depth=2
	movl	-1376(%rbp), %eax       ## 4-byte Reload
	cmpl	$0, %eax
	je	LBB38_54
## %bb.35:                              ##   in Loop: Header=BB38_30 Depth=2
	movslq	-308(%rbp), %rsi
	leaq	-160(%rbp), %rdi
	callq	__ZNSt3__16vectorINS_12basic_stringIcNS_11char_traitsIcEENS_9allocatorIcEEEENS4_IS6_EEEixEm
Ltmp390:
	leaq	-512(%rbp), %rdi
	movq	%rax, %rsi
	callq	__ZNSt3__112basic_stringIcNS_11char_traitsIcEENS_9allocatorIcEEEC1ERKS5_
Ltmp391:
	jmp	LBB38_36
LBB38_36:                               ##   in Loop: Header=BB38_30 Depth=2
Ltmp393:
	leaq	-488(%rbp), %rdi
	leaq	-512(%rbp), %rsi
	callq	__Z2ASNSt3__112basic_stringIcNS_11char_traitsIcEENS_9allocatorIcEEEE
Ltmp394:
	jmp	LBB38_37
LBB38_37:                               ##   in Loop: Header=BB38_30 Depth=2
Ltmp396:
	leaq	L_.str.15(%rip), %rsi
	leaq	-464(%rbp), %rdi
	leaq	-488(%rbp), %rdx
	callq	__ZNSt3__1plIcNS_11char_traitsIcEENS_9allocatorIcEEEENS_12basic_stringIT_T0_T1_EEPKS6_OS9_
Ltmp397:
	jmp	LBB38_38
LBB38_38:                               ##   in Loop: Header=BB38_30 Depth=2
	movslq	-412(%rbp), %rsi
	leaq	-336(%rbp), %rdi
	callq	__ZNSt3__16vectorINS_12basic_stringIcNS_11char_traitsIcEENS_9allocatorIcEEEENS4_IS6_EEEixEm
Ltmp399:
	leaq	-440(%rbp), %rdi
	leaq	-464(%rbp), %rsi
	movq	%rax, %rdx
	callq	__ZNSt3__1plIcNS_11char_traitsIcEENS_9allocatorIcEEEENS_12basic_stringIT_T0_T1_EEOS9_RKS9_
Ltmp400:
	jmp	LBB38_39
LBB38_39:                               ##   in Loop: Header=BB38_30 Depth=2
Ltmp402:
	leaq	-280(%rbp), %rdi
	leaq	-440(%rbp), %rsi
	callq	__ZNSt3__112basic_stringIcNS_11char_traitsIcEENS_9allocatorIcEEEpLERKS5_
Ltmp403:
	jmp	LBB38_40
LBB38_40:                               ##   in Loop: Header=BB38_30 Depth=2
	leaq	-440(%rbp), %rdi
	callq	__ZNSt3__112basic_stringIcNS_11char_traitsIcEENS_9allocatorIcEEED1Ev
	leaq	-464(%rbp), %rdi
	callq	__ZNSt3__112basic_stringIcNS_11char_traitsIcEENS_9allocatorIcEEED1Ev
	leaq	-488(%rbp), %rdi
	callq	__ZNSt3__112basic_stringIcNS_11char_traitsIcEENS_9allocatorIcEEED1Ev
	leaq	-512(%rbp), %rdi
	callq	__ZNSt3__112basic_stringIcNS_11char_traitsIcEENS_9allocatorIcEEED1Ev
	jmp	LBB38_54
LBB38_41:
Ltmp392:
                                        ## kill: def $edx killed $edx killed $rdx
	movq	%rax, -168(%rbp)
	movl	%edx, -172(%rbp)
	jmp	LBB38_58
LBB38_42:
Ltmp379:
                                        ## kill: def $edx killed $edx killed $rdx
	movq	%rax, -168(%rbp)
	movl	%edx, -172(%rbp)
	jmp	LBB38_46
LBB38_43:
Ltmp382:
                                        ## kill: def $edx killed $edx killed $rdx
	movq	%rax, -168(%rbp)
	movl	%edx, -172(%rbp)
	jmp	LBB38_45
LBB38_44:
Ltmp385:
                                        ## kill: def $edx killed $edx killed $rdx
	movq	%rax, -168(%rbp)
	movl	%edx, -172(%rbp)
	leaq	-360(%rbp), %rdi
	callq	__ZNSt3__112basic_stringIcNS_11char_traitsIcEENS_9allocatorIcEEED1Ev
LBB38_45:
	leaq	-408(%rbp), %rdi
	callq	__ZNSt3__112basic_stringIcNS_11char_traitsIcEENS_9allocatorIcEEED1Ev
LBB38_46:
	leaq	-384(%rbp), %rdi
	callq	__ZNSt3__112basic_stringIcNS_11char_traitsIcEENS_9allocatorIcEEED1Ev
	jmp	LBB38_58
LBB38_47:
Ltmp395:
                                        ## kill: def $edx killed $edx killed $rdx
	movq	%rax, -168(%rbp)
	movl	%edx, -172(%rbp)
	jmp	LBB38_53
LBB38_48:
Ltmp398:
                                        ## kill: def $edx killed $edx killed $rdx
	movq	%rax, -168(%rbp)
	movl	%edx, -172(%rbp)
	jmp	LBB38_52
LBB38_49:
Ltmp401:
                                        ## kill: def $edx killed $edx killed $rdx
	movq	%rax, -168(%rbp)
	movl	%edx, -172(%rbp)
	jmp	LBB38_51
LBB38_50:
Ltmp404:
                                        ## kill: def $edx killed $edx killed $rdx
	movq	%rax, -168(%rbp)
	movl	%edx, -172(%rbp)
	leaq	-440(%rbp), %rdi
	callq	__ZNSt3__112basic_stringIcNS_11char_traitsIcEENS_9allocatorIcEEED1Ev
LBB38_51:
	leaq	-464(%rbp), %rdi
	callq	__ZNSt3__112basic_stringIcNS_11char_traitsIcEENS_9allocatorIcEEED1Ev
LBB38_52:
	leaq	-488(%rbp), %rdi
	callq	__ZNSt3__112basic_stringIcNS_11char_traitsIcEENS_9allocatorIcEEED1Ev
LBB38_53:
	leaq	-512(%rbp), %rdi
	callq	__ZNSt3__112basic_stringIcNS_11char_traitsIcEENS_9allocatorIcEEED1Ev
	jmp	LBB38_58
LBB38_54:                               ##   in Loop: Header=BB38_30 Depth=2
	jmp	LBB38_55
LBB38_55:                               ##   in Loop: Header=BB38_30 Depth=2
	movl	-412(%rbp), %eax
	addl	$1, %eax
	movl	%eax, -412(%rbp)
	jmp	LBB38_30
LBB38_56:                               ##   in Loop: Header=BB38_24 Depth=1
	leaq	-336(%rbp), %rdi
	callq	__ZNSt3__16vectorINS_12basic_stringIcNS_11char_traitsIcEENS_9allocatorIcEEEENS4_IS6_EEED1Ev
## %bb.57:                              ##   in Loop: Header=BB38_24 Depth=1
	movl	-308(%rbp), %eax
	addl	$1, %eax
	movl	%eax, -308(%rbp)
	jmp	LBB38_24
LBB38_58:
	leaq	-336(%rbp), %rdi
	callq	__ZNSt3__16vectorINS_12basic_stringIcNS_11char_traitsIcEENS_9allocatorIcEEEENS4_IS6_EEED1Ev
	jmp	LBB38_228
LBB38_59:
	movl	$0, -516(%rbp)
	movl	$0, -520(%rbp)
LBB38_60:                               ## =>This Inner Loop Header: Depth=1
	movslq	-520(%rbp), %rax
	leaq	-136(%rbp), %rdi
	movq	%rax, -1384(%rbp)       ## 8-byte Spill
	callq	__ZNKSt3__16vectorINS_12basic_stringIcNS_11char_traitsIcEENS_9allocatorIcEEEENS4_IS6_EEE4sizeEv
	movq	-1384(%rbp), %rcx       ## 8-byte Reload
	cmpq	%rax, %rcx
	jae	LBB38_72
## %bb.61:                              ##   in Loop: Header=BB38_60 Depth=1
	movslq	-520(%rbp), %rsi
	leaq	-136(%rbp), %rdi
	callq	__ZNSt3__16vectorINS_12basic_stringIcNS_11char_traitsIcEENS_9allocatorIcEEEENS4_IS6_EEEixEm
	movq	%rax, %rdi
	callq	__ZNKSt3__112basic_stringIcNS_11char_traitsIcEENS_9allocatorIcEEE5c_strEv
Ltmp365:
	leaq	L_.str.4(%rip), %rsi
	movq	%rax, %rdi
	callq	_strcmp
Ltmp366:
	movl	%eax, -1388(%rbp)       ## 4-byte Spill
	jmp	LBB38_62
LBB38_62:                               ##   in Loop: Header=BB38_60 Depth=1
	movl	-1388(%rbp), %eax       ## 4-byte Reload
	cmpl	$0, %eax
	je	LBB38_70
## %bb.63:                              ##   in Loop: Header=BB38_60 Depth=1
	movslq	-520(%rbp), %rsi
	leaq	-136(%rbp), %rdi
	callq	__ZNSt3__16vectorINS_12basic_stringIcNS_11char_traitsIcEENS_9allocatorIcEEEENS4_IS6_EEEixEm
	movq	%rax, %rdi
	callq	__ZNKSt3__112basic_stringIcNS_11char_traitsIcEENS_9allocatorIcEEE5c_strEv
Ltmp367:
	leaq	L_.str.3(%rip), %rsi
	movq	%rax, %rdi
	callq	_strcmp
Ltmp368:
	movl	%eax, -1392(%rbp)       ## 4-byte Spill
	jmp	LBB38_64
LBB38_64:                               ##   in Loop: Header=BB38_60 Depth=1
	movl	-1392(%rbp), %eax       ## 4-byte Reload
	cmpl	$0, %eax
	je	LBB38_70
## %bb.65:                              ##   in Loop: Header=BB38_60 Depth=1
	movslq	-520(%rbp), %rsi
	leaq	-136(%rbp), %rdi
	callq	__ZNSt3__16vectorINS_12basic_stringIcNS_11char_traitsIcEENS_9allocatorIcEEEENS4_IS6_EEEixEm
Ltmp369:
	leaq	L_.str.15(%rip), %rsi
	leaq	-544(%rbp), %rdi
	movq	%rax, %rdx
	callq	__ZNSt3__1plIcNS_11char_traitsIcEENS_9allocatorIcEEEENS_12basic_stringIT_T0_T1_EEPKS6_RKS9_
Ltmp370:
	jmp	LBB38_66
LBB38_66:                               ##   in Loop: Header=BB38_60 Depth=1
Ltmp372:
	leaq	-280(%rbp), %rdi
	leaq	-544(%rbp), %rsi
	callq	__ZNSt3__112basic_stringIcNS_11char_traitsIcEENS_9allocatorIcEEEpLERKS5_
Ltmp373:
	jmp	LBB38_67
LBB38_67:                               ##   in Loop: Header=BB38_60 Depth=1
	leaq	-544(%rbp), %rdi
	callq	__ZNSt3__112basic_stringIcNS_11char_traitsIcEENS_9allocatorIcEEED1Ev
	jmp	LBB38_70
LBB38_68:
Ltmp371:
                                        ## kill: def $edx killed $edx killed $rdx
	movq	%rax, -168(%rbp)
	movl	%edx, -172(%rbp)
	jmp	LBB38_228
LBB38_69:
Ltmp374:
                                        ## kill: def $edx killed $edx killed $rdx
	movq	%rax, -168(%rbp)
	movl	%edx, -172(%rbp)
	leaq	-544(%rbp), %rdi
	callq	__ZNSt3__112basic_stringIcNS_11char_traitsIcEENS_9allocatorIcEEED1Ev
	jmp	LBB38_228
LBB38_70:                               ##   in Loop: Header=BB38_60 Depth=1
	jmp	LBB38_71
LBB38_71:                               ##   in Loop: Header=BB38_60 Depth=1
	movl	-520(%rbp), %eax
	addl	$1, %eax
	movl	%eax, -520(%rbp)
	jmp	LBB38_60
LBB38_72:
	movq	-32(%rbp), %rax
	addq	$48, %rax
Ltmp162:
	leaq	L_.str.3(%rip), %rsi
	movq	%rax, %rdi
	callq	__ZNSt3__112basic_stringIcNS_11char_traitsIcEENS_9allocatorIcEEEaSEPKc
Ltmp163:
	jmp	LBB38_73
LBB38_73:
	movl	$0, -548(%rbp)
LBB38_74:                               ## =>This Inner Loop Header: Depth=1
	movslq	-548(%rbp), %rax
	leaq	-88(%rbp), %rdi
	movq	%rax, -1400(%rbp)       ## 8-byte Spill
	callq	__ZNKSt3__16vectorINS_12basic_stringIcNS_11char_traitsIcEENS_9allocatorIcEEEENS4_IS6_EEE4sizeEv
	movq	-1400(%rbp), %rcx       ## 8-byte Reload
	cmpq	%rax, %rcx
	jae	LBB38_227
## %bb.75:                              ##   in Loop: Header=BB38_74 Depth=1
	movslq	-548(%rbp), %rsi
	leaq	-88(%rbp), %rdi
	callq	__ZNSt3__16vectorINS_12basic_stringIcNS_11char_traitsIcEENS_9allocatorIcEEEENS4_IS6_EEEixEm
	movq	%rax, %rdi
	callq	__ZNKSt3__112basic_stringIcNS_11char_traitsIcEENS_9allocatorIcEEE5c_strEv
Ltmp164:
	leaq	L_.str.4(%rip), %rsi
	movq	%rax, %rdi
	callq	_strcmp
Ltmp165:
	movl	%eax, -1404(%rbp)       ## 4-byte Spill
	jmp	LBB38_76
LBB38_76:                               ##   in Loop: Header=BB38_74 Depth=1
	movl	-1404(%rbp), %eax       ## 4-byte Reload
	cmpl	$0, %eax
	je	LBB38_224
## %bb.77:                              ##   in Loop: Header=BB38_74 Depth=1
	movslq	-548(%rbp), %rsi
	leaq	-88(%rbp), %rdi
	callq	__ZNSt3__16vectorINS_12basic_stringIcNS_11char_traitsIcEENS_9allocatorIcEEEENS4_IS6_EEEixEm
	movq	%rax, %rdi
	callq	__ZNKSt3__112basic_stringIcNS_11char_traitsIcEENS_9allocatorIcEEE5c_strEv
Ltmp166:
	leaq	L_.str.3(%rip), %rsi
	movq	%rax, %rdi
	callq	_strcmp
Ltmp167:
	movl	%eax, -1408(%rbp)       ## 4-byte Spill
	jmp	LBB38_78
LBB38_78:                               ##   in Loop: Header=BB38_74 Depth=1
	movl	-1408(%rbp), %eax       ## 4-byte Reload
	cmpl	$0, %eax
	je	LBB38_224
## %bb.79:                              ##   in Loop: Header=BB38_74 Depth=1
	movslq	-548(%rbp), %rsi
	leaq	-112(%rbp), %rdi
	callq	__ZNSt3__16vectorINS_12basic_stringIcNS_11char_traitsIcEENS_9allocatorIcEEEENS4_IS6_EEEixEm
	movq	%rax, %rdi
	callq	__ZNKSt3__112basic_stringIcNS_11char_traitsIcEENS_9allocatorIcEEE5c_strEv
Ltmp168:
	leaq	L_.str.3(%rip), %rsi
	movq	%rax, %rdi
	callq	_strcmp
Ltmp169:
	movl	%eax, -1412(%rbp)       ## 4-byte Spill
	jmp	LBB38_80
LBB38_80:                               ##   in Loop: Header=BB38_74 Depth=1
	movl	-1412(%rbp), %eax       ## 4-byte Reload
	cmpl	$0, %eax
	je	LBB38_224
## %bb.81:                              ##   in Loop: Header=BB38_74 Depth=1
	movslq	-548(%rbp), %rsi
	leaq	-112(%rbp), %rdi
	callq	__ZNSt3__16vectorINS_12basic_stringIcNS_11char_traitsIcEENS_9allocatorIcEEEENS4_IS6_EEEixEm
	movq	%rax, %rdi
	callq	__ZNKSt3__112basic_stringIcNS_11char_traitsIcEENS_9allocatorIcEEE5c_strEv
Ltmp170:
	leaq	L_.str.4(%rip), %rsi
	movq	%rax, %rdi
	callq	_strcmp
Ltmp171:
	movl	%eax, -1416(%rbp)       ## 4-byte Spill
	jmp	LBB38_82
LBB38_82:                               ##   in Loop: Header=BB38_74 Depth=1
	movl	-1416(%rbp), %eax       ## 4-byte Reload
	cmpl	$0, %eax
	je	LBB38_224
## %bb.83:                              ##   in Loop: Header=BB38_74 Depth=1
	leaq	-576(%rbp), %rdi
	callq	__ZNSt3__112basic_stringIcNS_11char_traitsIcEENS_9allocatorIcEEEC1Ev
Ltmp172:
	leaq	-624(%rbp), %rdi
	movq	-1320(%rbp), %rsi       ## 8-byte Reload
	callq	__ZNSt3__112basic_stringIcNS_11char_traitsIcEENS_9allocatorIcEEEC1ERKS5_
Ltmp173:
	jmp	LBB38_84
LBB38_84:                               ##   in Loop: Header=BB38_74 Depth=1
Ltmp174:
	leaq	-600(%rbp), %rdi
	leaq	-624(%rbp), %rsi
	callq	__Z2ASNSt3__112basic_stringIcNS_11char_traitsIcEENS_9allocatorIcEEEE
Ltmp175:
	jmp	LBB38_85
LBB38_85:                               ##   in Loop: Header=BB38_74 Depth=1
	leaq	-600(%rbp), %rdi
	callq	__ZNKSt3__112basic_stringIcNS_11char_traitsIcEENS_9allocatorIcEEE5c_strEv
Ltmp177:
	leaq	L_.str.3(%rip), %rsi
	movq	%rax, %rdi
	callq	_strcmp
Ltmp178:
	movl	%eax, -1420(%rbp)       ## 4-byte Spill
	jmp	LBB38_86
LBB38_86:                               ##   in Loop: Header=BB38_74 Depth=1
	leaq	-600(%rbp), %rdi
	callq	__ZNSt3__112basic_stringIcNS_11char_traitsIcEENS_9allocatorIcEEED1Ev
	leaq	-624(%rbp), %rdi
	callq	__ZNSt3__112basic_stringIcNS_11char_traitsIcEENS_9allocatorIcEEED1Ev
	movl	-1420(%rbp), %eax       ## 4-byte Reload
	cmpl	$0, %eax
	jne	LBB38_93
## %bb.87:                              ##   in Loop: Header=BB38_74 Depth=1
Ltmp182:
	leaq	L_.str.3(%rip), %rsi
	leaq	-576(%rbp), %rdi
	callq	__ZNSt3__112basic_stringIcNS_11char_traitsIcEENS_9allocatorIcEEEaSEPKc
Ltmp183:
	jmp	LBB38_88
LBB38_88:                               ##   in Loop: Header=BB38_74 Depth=1
	jmp	LBB38_95
LBB38_89:
Ltmp186:
                                        ## kill: def $edx killed $edx killed $rdx
	movq	%rax, -168(%rbp)
	movl	%edx, -172(%rbp)
	jmp	LBB38_223
LBB38_90:
Ltmp176:
                                        ## kill: def $edx killed $edx killed $rdx
	movq	%rax, -168(%rbp)
	movl	%edx, -172(%rbp)
	jmp	LBB38_92
LBB38_91:
Ltmp179:
                                        ## kill: def $edx killed $edx killed $rdx
	movq	%rax, -168(%rbp)
	movl	%edx, -172(%rbp)
	leaq	-600(%rbp), %rdi
	callq	__ZNSt3__112basic_stringIcNS_11char_traitsIcEENS_9allocatorIcEEED1Ev
LBB38_92:
	leaq	-624(%rbp), %rdi
	callq	__ZNSt3__112basic_stringIcNS_11char_traitsIcEENS_9allocatorIcEEED1Ev
	jmp	LBB38_223
LBB38_93:                               ##   in Loop: Header=BB38_74 Depth=1
Ltmp180:
	leaq	L_.str.3(%rip), %rsi
	leaq	-576(%rbp), %rdi
	callq	__ZNSt3__112basic_stringIcNS_11char_traitsIcEENS_9allocatorIcEEEaSEPKc
Ltmp181:
	jmp	LBB38_94
LBB38_94:                               ##   in Loop: Header=BB38_74 Depth=1
	jmp	LBB38_95
LBB38_95:                               ##   in Loop: Header=BB38_74 Depth=1
Ltmp184:
	leaq	L_.str.3(%rip), %rsi
	leaq	-648(%rbp), %rdi
	callq	__ZNSt3__112basic_stringIcNS_11char_traitsIcEENS_9allocatorIcEEEC1IDnEEPKc
Ltmp185:
	jmp	LBB38_96
LBB38_96:                               ##   in Loop: Header=BB38_74 Depth=1
	movslq	-548(%rbp), %rsi
	leaq	-112(%rbp), %rdi
	callq	__ZNSt3__16vectorINS_12basic_stringIcNS_11char_traitsIcEENS_9allocatorIcEEEENS4_IS6_EEEixEm
Ltmp187:
	leaq	-696(%rbp), %rdi
	leaq	-576(%rbp), %rsi
	movq	%rax, %rdx
	callq	__ZNSt3__1plIcNS_11char_traitsIcEENS_9allocatorIcEEEENS_12basic_stringIT_T0_T1_EERKS9_SB_
Ltmp188:
	jmp	LBB38_97
LBB38_97:                               ##   in Loop: Header=BB38_74 Depth=1
Ltmp189:
	leaq	-672(%rbp), %rdi
	leaq	-696(%rbp), %rsi
	callq	__ZN4SHA19from_fileERKNSt3__112basic_stringIcNS0_11char_traitsIcEENS0_9allocatorIcEEEE
Ltmp190:
	jmp	LBB38_98
LBB38_98:                               ##   in Loop: Header=BB38_74 Depth=1
	leaq	-648(%rbp), %rdi
	leaq	-672(%rbp), %rax
	movq	%rax, %rsi
	movq	%rax, -1432(%rbp)       ## 8-byte Spill
	callq	__ZNSt3__112basic_stringIcNS_11char_traitsIcEENS_9allocatorIcEEEaSEOS5_
	movq	-1432(%rbp), %rdi       ## 8-byte Reload
	movq	%rax, -1440(%rbp)       ## 8-byte Spill
	callq	__ZNSt3__112basic_stringIcNS_11char_traitsIcEENS_9allocatorIcEEED1Ev
	leaq	-696(%rbp), %rdi
	callq	__ZNSt3__112basic_stringIcNS_11char_traitsIcEENS_9allocatorIcEEED1Ev
	movb	$0, -697(%rbp)
Ltmp192:
	leaq	L_.str.16(%rip), %rsi
	leaq	-752(%rbp), %rdi
	leaq	-576(%rbp), %rdx
	callq	__ZNSt3__1plIcNS_11char_traitsIcEENS_9allocatorIcEEEENS_12basic_stringIT_T0_T1_EEPKS6_RKS9_
Ltmp193:
	jmp	LBB38_99
LBB38_99:                               ##   in Loop: Header=BB38_74 Depth=1
	movslq	-548(%rbp), %rsi
	leaq	-88(%rbp), %rdi
	callq	__ZNSt3__16vectorINS_12basic_stringIcNS_11char_traitsIcEENS_9allocatorIcEEEENS4_IS6_EEEixEm
Ltmp194:
	leaq	-728(%rbp), %rdi
	leaq	-752(%rbp), %rsi
	movq	%rax, %rdx
	callq	__ZNSt3__1plIcNS_11char_traitsIcEENS_9allocatorIcEEEENS_12basic_stringIT_T0_T1_EEOS9_RKS9_
Ltmp195:
	jmp	LBB38_100
LBB38_100:                              ##   in Loop: Header=BB38_74 Depth=1
Ltmp197:
	leaq	-728(%rbp), %rdi
	callq	__Z6existsRKNSt3__112basic_stringIcNS_11char_traitsIcEENS_9allocatorIcEEEE
Ltmp198:
	movb	%al, -1441(%rbp)        ## 1-byte Spill
	jmp	LBB38_101
LBB38_101:                              ##   in Loop: Header=BB38_74 Depth=1
	movb	-1441(%rbp), %al        ## 1-byte Reload
	andb	$1, %al
	movzbl	%al, %ecx
	leaq	-728(%rbp), %rdi
	movl	%ecx, -1448(%rbp)       ## 4-byte Spill
	callq	__ZNSt3__112basic_stringIcNS_11char_traitsIcEENS_9allocatorIcEEED1Ev
	leaq	-752(%rbp), %rdi
	callq	__ZNSt3__112basic_stringIcNS_11char_traitsIcEENS_9allocatorIcEEED1Ev
	movl	-1448(%rbp), %ecx       ## 4-byte Reload
	cmpl	$0, %ecx
	jne	LBB38_118
## %bb.102:                             ##   in Loop: Header=BB38_74 Depth=1
Ltmp239:
	movq	__ZNSt3__14coutE@GOTPCREL(%rip), %rdi
	leaq	L_.str.17(%rip), %rsi
	callq	__ZNSt3__1lsINS_11char_traitsIcEEEERNS_13basic_ostreamIcT_EES6_PKc
Ltmp240:
	movq	%rax, -1456(%rbp)       ## 8-byte Spill
	jmp	LBB38_103
LBB38_103:                              ##   in Loop: Header=BB38_74 Depth=1
Ltmp241:
	leaq	L_.str.18(%rip), %rsi
	movq	-1456(%rbp), %rdi       ## 8-byte Reload
	callq	__ZNSt3__1lsINS_11char_traitsIcEEEERNS_13basic_ostreamIcT_EES6_PKc
Ltmp242:
	movq	%rax, -1464(%rbp)       ## 8-byte Spill
	jmp	LBB38_104
LBB38_104:                              ##   in Loop: Header=BB38_74 Depth=1
Ltmp243:
	leaq	L_.str.19(%rip), %rsi
	movq	-1464(%rbp), %rdi       ## 8-byte Reload
	callq	__ZNSt3__1lsINS_11char_traitsIcEEEERNS_13basic_ostreamIcT_EES6_PKc
Ltmp244:
	movq	%rax, -1472(%rbp)       ## 8-byte Spill
	jmp	LBB38_105
LBB38_105:                              ##   in Loop: Header=BB38_74 Depth=1
Ltmp245:
	leaq	L_.str.20(%rip), %rsi
	movq	-1472(%rbp), %rdi       ## 8-byte Reload
	callq	__ZNSt3__1lsINS_11char_traitsIcEEEERNS_13basic_ostreamIcT_EES6_PKc
Ltmp246:
	movq	%rax, -1480(%rbp)       ## 8-byte Spill
	jmp	LBB38_106
LBB38_106:                              ##   in Loop: Header=BB38_74 Depth=1
	movslq	-548(%rbp), %rsi
	leaq	-88(%rbp), %rdi
	callq	__ZNSt3__16vectorINS_12basic_stringIcNS_11char_traitsIcEENS_9allocatorIcEEEENS4_IS6_EEEixEm
Ltmp247:
	leaq	-776(%rbp), %rdi
	leaq	-576(%rbp), %rsi
	movq	%rax, %rdx
	callq	__ZNSt3__1plIcNS_11char_traitsIcEENS_9allocatorIcEEEENS_12basic_stringIT_T0_T1_EERKS9_SB_
Ltmp248:
	jmp	LBB38_107
LBB38_107:                              ##   in Loop: Header=BB38_74 Depth=1
Ltmp249:
	leaq	-776(%rbp), %rsi
	movq	-1480(%rbp), %rdi       ## 8-byte Reload
	callq	__ZNSt3__1lsIcNS_11char_traitsIcEENS_9allocatorIcEEEERNS_13basic_ostreamIT_T0_EES9_RKNS_12basic_stringIS6_S7_T1_EE
Ltmp250:
	movq	%rax, -1488(%rbp)       ## 8-byte Spill
	jmp	LBB38_108
LBB38_108:                              ##   in Loop: Header=BB38_74 Depth=1
Ltmp251:
	leaq	L_.str.17(%rip), %rsi
	movq	-1488(%rbp), %rdi       ## 8-byte Reload
	callq	__ZNSt3__1lsINS_11char_traitsIcEEEERNS_13basic_ostreamIcT_EES6_PKc
Ltmp252:
	movq	%rax, -1496(%rbp)       ## 8-byte Spill
	jmp	LBB38_109
LBB38_109:                              ##   in Loop: Header=BB38_74 Depth=1
Ltmp253:
	leaq	L_.str.21(%rip), %rsi
	movq	-1496(%rbp), %rdi       ## 8-byte Reload
	callq	__ZNSt3__1lsINS_11char_traitsIcEEEERNS_13basic_ostreamIcT_EES6_PKc
Ltmp254:
	movq	%rax, -1504(%rbp)       ## 8-byte Spill
	jmp	LBB38_110
LBB38_110:                              ##   in Loop: Header=BB38_74 Depth=1
Ltmp255:
	leaq	L_.str.19(%rip), %rsi
	movq	-1504(%rbp), %rdi       ## 8-byte Reload
	callq	__ZNSt3__1lsINS_11char_traitsIcEEEERNS_13basic_ostreamIcT_EES6_PKc
Ltmp256:
	jmp	LBB38_111
LBB38_111:                              ##   in Loop: Header=BB38_74 Depth=1
	leaq	-776(%rbp), %rdi
	callq	__ZNSt3__112basic_stringIcNS_11char_traitsIcEENS_9allocatorIcEEED1Ev
	movb	$1, -697(%rbp)
	jmp	LBB38_155
LBB38_112:
Ltmp265:
                                        ## kill: def $edx killed $edx killed $rdx
	movq	%rax, -168(%rbp)
	movl	%edx, -172(%rbp)
	jmp	LBB38_222
LBB38_113:
Ltmp191:
                                        ## kill: def $edx killed $edx killed $rdx
	movq	%rax, -168(%rbp)
	movl	%edx, -172(%rbp)
	leaq	-696(%rbp), %rdi
	callq	__ZNSt3__112basic_stringIcNS_11char_traitsIcEENS_9allocatorIcEEED1Ev
	jmp	LBB38_222
LBB38_114:
Ltmp196:
                                        ## kill: def $edx killed $edx killed $rdx
	movq	%rax, -168(%rbp)
	movl	%edx, -172(%rbp)
	jmp	LBB38_116
LBB38_115:
Ltmp199:
                                        ## kill: def $edx killed $edx killed $rdx
	movq	%rax, -168(%rbp)
	movl	%edx, -172(%rbp)
	leaq	-728(%rbp), %rdi
	callq	__ZNSt3__112basic_stringIcNS_11char_traitsIcEENS_9allocatorIcEEED1Ev
LBB38_116:
	leaq	-752(%rbp), %rdi
	callq	__ZNSt3__112basic_stringIcNS_11char_traitsIcEENS_9allocatorIcEEED1Ev
	jmp	LBB38_222
LBB38_117:
Ltmp257:
                                        ## kill: def $edx killed $edx killed $rdx
	movq	%rax, -168(%rbp)
	movl	%edx, -172(%rbp)
	leaq	-776(%rbp), %rdi
	callq	__ZNSt3__112basic_stringIcNS_11char_traitsIcEENS_9allocatorIcEEED1Ev
	jmp	LBB38_222
LBB38_118:                              ##   in Loop: Header=BB38_74 Depth=1
	cmpl	$1, _forcebuild(%rip)
	jne	LBB38_120
## %bb.119:                             ##   in Loop: Header=BB38_74 Depth=1
	movb	$1, -697(%rbp)
	jmp	LBB38_154
LBB38_120:                              ##   in Loop: Header=BB38_74 Depth=1
	leaq	-64(%rbp), %rdi
	callq	__ZNKSt3__16vectorINS_12basic_stringIcNS_11char_traitsIcEENS_9allocatorIcEEEENS4_IS6_EEE4sizeEv
	movslq	-548(%rbp), %rcx
	cmpq	%rcx, %rax
	jae	LBB38_122
## %bb.121:                             ##   in Loop: Header=BB38_74 Depth=1
	movb	$1, -697(%rbp)
	jmp	LBB38_153
LBB38_122:                              ##   in Loop: Header=BB38_74 Depth=1
	movslq	-548(%rbp), %rsi
	leaq	-64(%rbp), %rdi
	callq	__ZNSt3__16vectorINS_12basic_stringIcNS_11char_traitsIcEENS_9allocatorIcEEEENS4_IS6_EEEixEm
	movq	%rax, %rdi
	callq	__ZNKSt3__112basic_stringIcNS_11char_traitsIcEENS_9allocatorIcEEE5c_strEv
	leaq	-648(%rbp), %rdi
	movq	%rax, -1512(%rbp)       ## 8-byte Spill
	callq	__ZNKSt3__112basic_stringIcNS_11char_traitsIcEENS_9allocatorIcEEE5c_strEv
Ltmp200:
	movq	-1512(%rbp), %rdi       ## 8-byte Reload
	movq	%rax, %rsi
	callq	_strcmp
Ltmp201:
	movl	%eax, -1516(%rbp)       ## 4-byte Spill
	jmp	LBB38_123
LBB38_123:                              ##   in Loop: Header=BB38_74 Depth=1
	movl	-1516(%rbp), %eax       ## 4-byte Reload
	cmpl	$0, %eax
	jne	LBB38_138
## %bb.124:                             ##   in Loop: Header=BB38_74 Depth=1
Ltmp214:
	movq	__ZNSt3__14coutE@GOTPCREL(%rip), %rdi
	leaq	L_.str.22(%rip), %rsi
	callq	__ZNSt3__1lsINS_11char_traitsIcEEEERNS_13basic_ostreamIcT_EES6_PKc
Ltmp215:
	movq	%rax, -1528(%rbp)       ## 8-byte Spill
	jmp	LBB38_125
LBB38_125:                              ##   in Loop: Header=BB38_74 Depth=1
Ltmp216:
	leaq	L_.str.23(%rip), %rsi
	movq	-1528(%rbp), %rdi       ## 8-byte Reload
	callq	__ZNSt3__1lsINS_11char_traitsIcEEEERNS_13basic_ostreamIcT_EES6_PKc
Ltmp217:
	movq	%rax, -1536(%rbp)       ## 8-byte Spill
	jmp	LBB38_126
LBB38_126:                              ##   in Loop: Header=BB38_74 Depth=1
Ltmp218:
	leaq	L_.str.24(%rip), %rsi
	movq	-1536(%rbp), %rdi       ## 8-byte Reload
	callq	__ZNSt3__1lsINS_11char_traitsIcEEEERNS_13basic_ostreamIcT_EES6_PKc
Ltmp219:
	movq	%rax, -1544(%rbp)       ## 8-byte Spill
	jmp	LBB38_127
LBB38_127:                              ##   in Loop: Header=BB38_74 Depth=1
	movslq	-548(%rbp), %rsi
	leaq	-112(%rbp), %rdi
	callq	__ZNSt3__16vectorINS_12basic_stringIcNS_11char_traitsIcEENS_9allocatorIcEEEENS4_IS6_EEEixEm
Ltmp220:
	leaq	-800(%rbp), %rdi
	leaq	-576(%rbp), %rsi
	movq	%rax, %rdx
	callq	__ZNSt3__1plIcNS_11char_traitsIcEENS_9allocatorIcEEEENS_12basic_stringIT_T0_T1_EERKS9_SB_
Ltmp221:
	jmp	LBB38_128
LBB38_128:                              ##   in Loop: Header=BB38_74 Depth=1
Ltmp222:
	leaq	-800(%rbp), %rsi
	movq	-1544(%rbp), %rdi       ## 8-byte Reload
	callq	__ZNSt3__1lsIcNS_11char_traitsIcEENS_9allocatorIcEEEERNS_13basic_ostreamIT_T0_EES9_RKNS_12basic_stringIS6_S7_T1_EE
Ltmp223:
	movq	%rax, -1552(%rbp)       ## 8-byte Spill
	jmp	LBB38_129
LBB38_129:                              ##   in Loop: Header=BB38_74 Depth=1
Ltmp224:
	leaq	L_.str.22(%rip), %rsi
	movq	-1552(%rbp), %rdi       ## 8-byte Reload
	callq	__ZNSt3__1lsINS_11char_traitsIcEEEERNS_13basic_ostreamIcT_EES6_PKc
Ltmp225:
	movq	%rax, -1560(%rbp)       ## 8-byte Spill
	jmp	LBB38_130
LBB38_130:                              ##   in Loop: Header=BB38_74 Depth=1
Ltmp226:
	leaq	L_.str.25(%rip), %rsi
	movq	-1560(%rbp), %rdi       ## 8-byte Reload
	callq	__ZNSt3__1lsINS_11char_traitsIcEEEERNS_13basic_ostreamIcT_EES6_PKc
Ltmp227:
	movq	%rax, -1568(%rbp)       ## 8-byte Spill
	jmp	LBB38_131
LBB38_131:                              ##   in Loop: Header=BB38_74 Depth=1
Ltmp228:
	leaq	L_.str.24(%rip), %rsi
	movq	-1568(%rbp), %rdi       ## 8-byte Reload
	callq	__ZNSt3__1lsINS_11char_traitsIcEEEERNS_13basic_ostreamIcT_EES6_PKc
Ltmp229:
	movq	%rax, -1576(%rbp)       ## 8-byte Spill
	jmp	LBB38_132
LBB38_132:                              ##   in Loop: Header=BB38_74 Depth=1
Ltmp230:
	leaq	-648(%rbp), %rsi
	movq	-1576(%rbp), %rdi       ## 8-byte Reload
	callq	__ZNSt3__1lsIcNS_11char_traitsIcEENS_9allocatorIcEEEERNS_13basic_ostreamIT_T0_EES9_RKNS_12basic_stringIS6_S7_T1_EE
Ltmp231:
	movq	%rax, -1584(%rbp)       ## 8-byte Spill
	jmp	LBB38_133
LBB38_133:                              ##   in Loop: Header=BB38_74 Depth=1
Ltmp232:
	leaq	L_.str.22(%rip), %rsi
	movq	-1584(%rbp), %rdi       ## 8-byte Reload
	callq	__ZNSt3__1lsINS_11char_traitsIcEEEERNS_13basic_ostreamIcT_EES6_PKc
Ltmp233:
	movq	%rax, -1592(%rbp)       ## 8-byte Spill
	jmp	LBB38_134
LBB38_134:                              ##   in Loop: Header=BB38_74 Depth=1
Ltmp234:
	leaq	L_.str.26(%rip), %rsi
	movq	-1592(%rbp), %rdi       ## 8-byte Reload
	callq	__ZNSt3__1lsINS_11char_traitsIcEEEERNS_13basic_ostreamIcT_EES6_PKc
Ltmp235:
	movq	%rax, -1600(%rbp)       ## 8-byte Spill
	jmp	LBB38_135
LBB38_135:                              ##   in Loop: Header=BB38_74 Depth=1
Ltmp236:
	leaq	__ZNSt3__1L4endlIcNS_11char_traitsIcEEEERNS_13basic_ostreamIT_T0_EES7_(%rip), %rsi
	movq	-1600(%rbp), %rdi       ## 8-byte Reload
	callq	__ZNSt3__113basic_ostreamIcNS_11char_traitsIcEEElsEPFRS3_S4_E
Ltmp237:
	jmp	LBB38_136
LBB38_136:                              ##   in Loop: Header=BB38_74 Depth=1
	leaq	-800(%rbp), %rdi
	callq	__ZNSt3__112basic_stringIcNS_11char_traitsIcEENS_9allocatorIcEEED1Ev
	jmp	LBB38_152
LBB38_137:
Ltmp238:
                                        ## kill: def $edx killed $edx killed $rdx
	movq	%rax, -168(%rbp)
	movl	%edx, -172(%rbp)
	leaq	-800(%rbp), %rdi
	callq	__ZNSt3__112basic_stringIcNS_11char_traitsIcEENS_9allocatorIcEEED1Ev
	jmp	LBB38_222
LBB38_138:                              ##   in Loop: Header=BB38_74 Depth=1
	movslq	-548(%rbp), %rsi
	leaq	-64(%rbp), %rdi
	callq	__ZNSt3__16vectorINS_12basic_stringIcNS_11char_traitsIcEENS_9allocatorIcEEEENS4_IS6_EEEixEm
	movq	%rax, %rdi
	callq	__ZNKSt3__112basic_stringIcNS_11char_traitsIcEENS_9allocatorIcEEE5c_strEv
Ltmp202:
	leaq	L_.str.3(%rip), %rsi
	movq	%rax, %rdi
	callq	_strcmp
Ltmp203:
	movl	%eax, -1604(%rbp)       ## 4-byte Spill
	jmp	LBB38_139
LBB38_139:                              ##   in Loop: Header=BB38_74 Depth=1
	movl	-1604(%rbp), %eax       ## 4-byte Reload
	cmpl	$0, %eax
	je	LBB38_142
## %bb.140:                             ##   in Loop: Header=BB38_74 Depth=1
	movslq	-548(%rbp), %rsi
	leaq	-64(%rbp), %rdi
	callq	__ZNSt3__16vectorINS_12basic_stringIcNS_11char_traitsIcEENS_9allocatorIcEEEENS4_IS6_EEEixEm
	movq	%rax, %rdi
	callq	__ZNKSt3__112basic_stringIcNS_11char_traitsIcEENS_9allocatorIcEEE5c_strEv
Ltmp204:
	leaq	L_.str.4(%rip), %rsi
	movq	%rax, %rdi
	callq	_strcmp
Ltmp205:
	movl	%eax, -1608(%rbp)       ## 4-byte Spill
	jmp	LBB38_141
LBB38_141:                              ##   in Loop: Header=BB38_74 Depth=1
	movl	-1608(%rbp), %eax       ## 4-byte Reload
	cmpl	$0, %eax
	jne	LBB38_146
LBB38_142:                              ##   in Loop: Header=BB38_74 Depth=1
	movslq	-548(%rbp), %rsi
	leaq	-64(%rbp), %rdi
	callq	__ZNSt3__16vectorINS_12basic_stringIcNS_11char_traitsIcEENS_9allocatorIcEEEENS4_IS6_EEEixEm
Ltmp208:
	leaq	L_.str.27(%rip), %rsi
	movq	%rax, %rdi
	callq	__ZNSt3__112basic_stringIcNS_11char_traitsIcEENS_9allocatorIcEEEaSEPKc
Ltmp209:
	jmp	LBB38_143
LBB38_143:                              ##   in Loop: Header=BB38_74 Depth=1
Ltmp210:
	movq	__ZNSt3__14coutE@GOTPCREL(%rip), %rdi
	leaq	L_.str.28(%rip), %rsi
	callq	__ZNSt3__1lsINS_11char_traitsIcEEEERNS_13basic_ostreamIcT_EES6_PKc
Ltmp211:
	movq	%rax, -1616(%rbp)       ## 8-byte Spill
	jmp	LBB38_144
LBB38_144:                              ##   in Loop: Header=BB38_74 Depth=1
Ltmp212:
	leaq	__ZNSt3__1L4endlIcNS_11char_traitsIcEEEERNS_13basic_ostreamIT_T0_EES7_(%rip), %rsi
	movq	-1616(%rbp), %rdi       ## 8-byte Reload
	callq	__ZNSt3__113basic_ostreamIcNS_11char_traitsIcEEElsEPFRS3_S4_E
Ltmp213:
	jmp	LBB38_145
LBB38_145:                              ##   in Loop: Header=BB38_74 Depth=1
	movb	$1, -697(%rbp)
	jmp	LBB38_151
LBB38_146:                              ##   in Loop: Header=BB38_74 Depth=1
	movslq	-548(%rbp), %rsi
	leaq	-64(%rbp), %rdi
	callq	__ZNSt3__16vectorINS_12basic_stringIcNS_11char_traitsIcEENS_9allocatorIcEEEENS4_IS6_EEEixEm
	movq	%rax, %rdi
	callq	__ZNKSt3__112basic_stringIcNS_11char_traitsIcEENS_9allocatorIcEEE5c_strEv
	leaq	-648(%rbp), %rdi
	movq	%rax, -1624(%rbp)       ## 8-byte Spill
	callq	__ZNKSt3__112basic_stringIcNS_11char_traitsIcEENS_9allocatorIcEEE5c_strEv
Ltmp206:
	movq	-1624(%rbp), %rdi       ## 8-byte Reload
	movq	%rax, %rsi
	callq	_strcmp
Ltmp207:
	movl	%eax, -1628(%rbp)       ## 4-byte Spill
	jmp	LBB38_147
LBB38_147:                              ##   in Loop: Header=BB38_74 Depth=1
	movl	-1628(%rbp), %eax       ## 4-byte Reload
	cmpl	$0, %eax
	je	LBB38_149
## %bb.148:                             ##   in Loop: Header=BB38_74 Depth=1
	movb	$1, -697(%rbp)
	jmp	LBB38_150
LBB38_149:                              ##   in Loop: Header=BB38_74 Depth=1
	movb	$0, -697(%rbp)
LBB38_150:                              ##   in Loop: Header=BB38_74 Depth=1
	jmp	LBB38_151
LBB38_151:                              ##   in Loop: Header=BB38_74 Depth=1
	jmp	LBB38_152
LBB38_152:                              ##   in Loop: Header=BB38_74 Depth=1
	jmp	LBB38_153
LBB38_153:                              ##   in Loop: Header=BB38_74 Depth=1
	jmp	LBB38_154
LBB38_154:                              ##   in Loop: Header=BB38_74 Depth=1
	jmp	LBB38_155
LBB38_155:                              ##   in Loop: Header=BB38_74 Depth=1
Ltmp258:
	leaq	-824(%rbp), %rdi
	leaq	-648(%rbp), %rsi
	movl	$32, %edx
	callq	__ZNSt3__1plIcNS_11char_traitsIcEENS_9allocatorIcEEEENS_12basic_stringIT_T0_T1_EERKS9_S6_
Ltmp259:
	jmp	LBB38_156
LBB38_156:                              ##   in Loop: Header=BB38_74 Depth=1
	movq	-32(%rbp), %rax
	addq	$48, %rax
Ltmp260:
	leaq	-824(%rbp), %rsi
	movq	%rax, %rdi
	callq	__ZNSt3__112basic_stringIcNS_11char_traitsIcEENS_9allocatorIcEEEpLERKS5_
Ltmp261:
	jmp	LBB38_157
LBB38_157:                              ##   in Loop: Header=BB38_74 Depth=1
	leaq	-824(%rbp), %rdi
	callq	__ZNSt3__112basic_stringIcNS_11char_traitsIcEENS_9allocatorIcEEED1Ev
	testb	$1, -697(%rbp)
	je	LBB38_221
## %bb.158:                             ##   in Loop: Header=BB38_74 Depth=1
Ltmp263:
	leaq	-1104(%rbp), %rdi
	movl	$24, %esi
	callq	__ZNSt3__118basic_stringstreamIcNS_11char_traitsIcEENS_9allocatorIcEEEC1Ej
Ltmp264:
	jmp	LBB38_159
LBB38_159:                              ##   in Loop: Header=BB38_74 Depth=1
	leaq	-1088(%rbp), %rdi
Ltmp266:
	leaq	L_.str.29(%rip), %rsi
	callq	__ZNSt3__1lsINS_11char_traitsIcEEEERNS_13basic_ostreamIcT_EES6_PKc
Ltmp267:
	movq	%rax, -1640(%rbp)       ## 8-byte Spill
	jmp	LBB38_160
LBB38_160:                              ##   in Loop: Header=BB38_74 Depth=1
Ltmp268:
	movq	-1640(%rbp), %rdi       ## 8-byte Reload
	movq	-1304(%rbp), %rsi       ## 8-byte Reload
	callq	__ZNSt3__1lsIcNS_11char_traitsIcEENS_9allocatorIcEEEERNS_13basic_ostreamIT_T0_EES9_RKNS_12basic_stringIS6_S7_T1_EE
Ltmp269:
	movq	%rax, -1648(%rbp)       ## 8-byte Spill
	jmp	LBB38_161
LBB38_161:                              ##   in Loop: Header=BB38_74 Depth=1
Ltmp270:
	leaq	L_.str.30(%rip), %rsi
	movq	-1648(%rbp), %rdi       ## 8-byte Reload
	callq	__ZNSt3__1lsINS_11char_traitsIcEEEERNS_13basic_ostreamIcT_EES6_PKc
Ltmp271:
	movq	%rax, -1656(%rbp)       ## 8-byte Spill
	jmp	LBB38_162
LBB38_162:                              ##   in Loop: Header=BB38_74 Depth=1
Ltmp272:
	leaq	-576(%rbp), %rsi
	movq	-1656(%rbp), %rdi       ## 8-byte Reload
	callq	__ZNSt3__1lsIcNS_11char_traitsIcEENS_9allocatorIcEEEERNS_13basic_ostreamIT_T0_EES9_RKNS_12basic_stringIS6_S7_T1_EE
Ltmp273:
	movq	%rax, -1664(%rbp)       ## 8-byte Spill
	jmp	LBB38_163
LBB38_163:                              ##   in Loop: Header=BB38_74 Depth=1
	movslq	-548(%rbp), %rsi
	leaq	-88(%rbp), %rdi
	callq	__ZNSt3__16vectorINS_12basic_stringIcNS_11char_traitsIcEENS_9allocatorIcEEEENS4_IS6_EEEixEm
Ltmp274:
	movq	-1664(%rbp), %rdi       ## 8-byte Reload
	movq	%rax, %rsi
	callq	__ZNSt3__1lsIcNS_11char_traitsIcEENS_9allocatorIcEEEERNS_13basic_ostreamIT_T0_EES9_RKNS_12basic_stringIS6_S7_T1_EE
Ltmp275:
	movq	%rax, -1672(%rbp)       ## 8-byte Spill
	jmp	LBB38_164
LBB38_164:                              ##   in Loop: Header=BB38_74 Depth=1
Ltmp276:
	leaq	L_.str.4(%rip), %rsi
	movq	-1672(%rbp), %rdi       ## 8-byte Reload
	callq	__ZNSt3__1lsINS_11char_traitsIcEEEERNS_13basic_ostreamIcT_EES6_PKc
Ltmp277:
	movq	%rax, -1680(%rbp)       ## 8-byte Spill
	jmp	LBB38_165
LBB38_165:                              ##   in Loop: Header=BB38_74 Depth=1
	movslq	-548(%rbp), %rsi
	leaq	-112(%rbp), %rdi
	callq	__ZNSt3__16vectorINS_12basic_stringIcNS_11char_traitsIcEENS_9allocatorIcEEEENS4_IS6_EEEixEm
Ltmp278:
	leaq	-1128(%rbp), %rdi
	leaq	-576(%rbp), %rsi
	movq	%rax, %rdx
	callq	__ZNSt3__1plIcNS_11char_traitsIcEENS_9allocatorIcEEEENS_12basic_stringIT_T0_T1_EERKS9_SB_
Ltmp279:
	jmp	LBB38_166
LBB38_166:                              ##   in Loop: Header=BB38_74 Depth=1
Ltmp280:
	leaq	-1128(%rbp), %rsi
	movq	-1680(%rbp), %rdi       ## 8-byte Reload
	callq	__ZNSt3__1lsIcNS_11char_traitsIcEENS_9allocatorIcEEEERNS_13basic_ostreamIT_T0_EES9_RKNS_12basic_stringIS6_S7_T1_EE
Ltmp281:
	movq	%rax, -1688(%rbp)       ## 8-byte Spill
	jmp	LBB38_167
LBB38_167:                              ##   in Loop: Header=BB38_74 Depth=1
Ltmp282:
	leaq	-280(%rbp), %rsi
	movq	-1688(%rbp), %rdi       ## 8-byte Reload
	callq	__ZNSt3__1lsIcNS_11char_traitsIcEENS_9allocatorIcEEEERNS_13basic_ostreamIT_T0_EES9_RKNS_12basic_stringIS6_S7_T1_EE
Ltmp283:
	movq	%rax, -1696(%rbp)       ## 8-byte Spill
	jmp	LBB38_168
LBB38_168:                              ##   in Loop: Header=BB38_74 Depth=1
Ltmp284:
	leaq	L_.str.4(%rip), %rsi
	movq	-1696(%rbp), %rdi       ## 8-byte Reload
	callq	__ZNSt3__1lsINS_11char_traitsIcEEEERNS_13basic_ostreamIcT_EES6_PKc
Ltmp285:
	movq	%rax, -1704(%rbp)       ## 8-byte Spill
	jmp	LBB38_169
LBB38_169:                              ##   in Loop: Header=BB38_74 Depth=1
	movq	-40(%rbp), %rax
	addq	$48, %rax
Ltmp286:
	movq	-1704(%rbp), %rdi       ## 8-byte Reload
	movq	%rax, %rsi
	callq	__ZNSt3__1lsIcNS_11char_traitsIcEENS_9allocatorIcEEEERNS_13basic_ostreamIT_T0_EES9_RKNS_12basic_stringIS6_S7_T1_EE
Ltmp287:
	jmp	LBB38_170
LBB38_170:                              ##   in Loop: Header=BB38_74 Depth=1
	leaq	-1128(%rbp), %rdi
	callq	__ZNSt3__112basic_stringIcNS_11char_traitsIcEENS_9allocatorIcEEED1Ev
Ltmp289:
	leaq	-1152(%rbp), %rdi
	leaq	-1104(%rbp), %rsi
	callq	__ZNKSt3__118basic_stringstreamIcNS_11char_traitsIcEENS_9allocatorIcEEE3strEv
Ltmp290:
	jmp	LBB38_171
LBB38_171:                              ##   in Loop: Header=BB38_74 Depth=1
	leaq	-1152(%rbp), %rdi
	callq	__ZNKSt3__112basic_stringIcNS_11char_traitsIcEENS_9allocatorIcEEE5c_strEv
Ltmp291:
	movq	%rax, %rdi
	callq	_system
Ltmp292:
	movl	%eax, -1708(%rbp)       ## 4-byte Spill
	jmp	LBB38_172
LBB38_172:                              ##   in Loop: Header=BB38_74 Depth=1
	movl	-1708(%rbp), %eax       ## 4-byte Reload
	movl	%eax, -516(%rbp)
	leaq	-1152(%rbp), %rdi
	callq	__ZNSt3__112basic_stringIcNS_11char_traitsIcEENS_9allocatorIcEEED1Ev
	cmpl	$0, -516(%rbp)
	jne	LBB38_192
## %bb.173:                             ##   in Loop: Header=BB38_74 Depth=1
Ltmp337:
	movq	__ZNSt3__14coutE@GOTPCREL(%rip), %rdi
	leaq	L_.str.22(%rip), %rsi
	callq	__ZNSt3__1lsINS_11char_traitsIcEEEERNS_13basic_ostreamIcT_EES6_PKc
Ltmp338:
	movq	%rax, -1720(%rbp)       ## 8-byte Spill
	jmp	LBB38_174
LBB38_174:                              ##   in Loop: Header=BB38_74 Depth=1
Ltmp339:
	leaq	L_.str.31(%rip), %rsi
	movq	-1720(%rbp), %rdi       ## 8-byte Reload
	callq	__ZNSt3__1lsINS_11char_traitsIcEEEERNS_13basic_ostreamIcT_EES6_PKc
Ltmp340:
	movq	%rax, -1728(%rbp)       ## 8-byte Spill
	jmp	LBB38_175
LBB38_175:                              ##   in Loop: Header=BB38_74 Depth=1
Ltmp341:
	leaq	L_.str.24(%rip), %rsi
	movq	-1728(%rbp), %rdi       ## 8-byte Reload
	callq	__ZNSt3__1lsINS_11char_traitsIcEEEERNS_13basic_ostreamIcT_EES6_PKc
Ltmp342:
	movq	%rax, -1736(%rbp)       ## 8-byte Spill
	jmp	LBB38_176
LBB38_176:                              ##   in Loop: Header=BB38_74 Depth=1
	movslq	-548(%rbp), %rsi
	leaq	-112(%rbp), %rdi
	callq	__ZNSt3__16vectorINS_12basic_stringIcNS_11char_traitsIcEENS_9allocatorIcEEEENS4_IS6_EEEixEm
Ltmp343:
	leaq	-1176(%rbp), %rdi
	leaq	-576(%rbp), %rsi
	movq	%rax, %rdx
	callq	__ZNSt3__1plIcNS_11char_traitsIcEENS_9allocatorIcEEEENS_12basic_stringIT_T0_T1_EERKS9_SB_
Ltmp344:
	jmp	LBB38_177
LBB38_177:                              ##   in Loop: Header=BB38_74 Depth=1
Ltmp346:
	leaq	-1176(%rbp), %rsi
	movq	-1736(%rbp), %rdi       ## 8-byte Reload
	callq	__ZNSt3__1lsIcNS_11char_traitsIcEENS_9allocatorIcEEEERNS_13basic_ostreamIT_T0_EES9_RKNS_12basic_stringIS6_S7_T1_EE
Ltmp347:
	movq	%rax, -1744(%rbp)       ## 8-byte Spill
	jmp	LBB38_178
LBB38_178:                              ##   in Loop: Header=BB38_74 Depth=1
Ltmp348:
	leaq	L_.str.22(%rip), %rsi
	movq	-1744(%rbp), %rdi       ## 8-byte Reload
	callq	__ZNSt3__1lsINS_11char_traitsIcEEEERNS_13basic_ostreamIcT_EES6_PKc
Ltmp349:
	movq	%rax, -1752(%rbp)       ## 8-byte Spill
	jmp	LBB38_179
LBB38_179:                              ##   in Loop: Header=BB38_74 Depth=1
Ltmp350:
	leaq	L_.str.13(%rip), %rsi
	movq	-1752(%rbp), %rdi       ## 8-byte Reload
	callq	__ZNSt3__1lsINS_11char_traitsIcEEEERNS_13basic_ostreamIcT_EES6_PKc
Ltmp351:
	movq	%rax, -1760(%rbp)       ## 8-byte Spill
	jmp	LBB38_180
LBB38_180:                              ##   in Loop: Header=BB38_74 Depth=1
Ltmp352:
	leaq	L_.str.20(%rip), %rsi
	movq	-1760(%rbp), %rdi       ## 8-byte Reload
	callq	__ZNSt3__1lsINS_11char_traitsIcEEEERNS_13basic_ostreamIcT_EES6_PKc
Ltmp353:
	movq	%rax, -1768(%rbp)       ## 8-byte Spill
	jmp	LBB38_181
LBB38_181:                              ##   in Loop: Header=BB38_74 Depth=1
Ltmp354:
	leaq	L_.str.32(%rip), %rsi
	movq	-1768(%rbp), %rdi       ## 8-byte Reload
	callq	__ZNSt3__1lsINS_11char_traitsIcEEEERNS_13basic_ostreamIcT_EES6_PKc
Ltmp355:
	movq	%rax, -1776(%rbp)       ## 8-byte Spill
	jmp	LBB38_182
LBB38_182:                              ##   in Loop: Header=BB38_74 Depth=1
Ltmp356:
	leaq	L_.str.22(%rip), %rsi
	movq	-1776(%rbp), %rdi       ## 8-byte Reload
	callq	__ZNSt3__1lsINS_11char_traitsIcEEEERNS_13basic_ostreamIcT_EES6_PKc
Ltmp357:
	movq	%rax, -1784(%rbp)       ## 8-byte Spill
	jmp	LBB38_183
LBB38_183:                              ##   in Loop: Header=BB38_74 Depth=1
Ltmp358:
	leaq	L_.str.33(%rip), %rsi
	movq	-1784(%rbp), %rdi       ## 8-byte Reload
	callq	__ZNSt3__1lsINS_11char_traitsIcEEEERNS_13basic_ostreamIcT_EES6_PKc
Ltmp359:
	movq	%rax, -1792(%rbp)       ## 8-byte Spill
	jmp	LBB38_184
LBB38_184:                              ##   in Loop: Header=BB38_74 Depth=1
Ltmp360:
	leaq	L_.str.19(%rip), %rsi
	movq	-1792(%rbp), %rdi       ## 8-byte Reload
	callq	__ZNSt3__1lsINS_11char_traitsIcEEEERNS_13basic_ostreamIcT_EES6_PKc
Ltmp361:
	movq	%rax, -1800(%rbp)       ## 8-byte Spill
	jmp	LBB38_185
LBB38_185:                              ##   in Loop: Header=BB38_74 Depth=1
Ltmp362:
	leaq	__ZNSt3__1L4endlIcNS_11char_traitsIcEEEERNS_13basic_ostreamIT_T0_EES7_(%rip), %rsi
	movq	-1800(%rbp), %rdi       ## 8-byte Reload
	callq	__ZNSt3__113basic_ostreamIcNS_11char_traitsIcEEElsEPFRS3_S4_E
Ltmp363:
	jmp	LBB38_186
LBB38_186:                              ##   in Loop: Header=BB38_74 Depth=1
	leaq	-1176(%rbp), %rdi
	callq	__ZNSt3__112basic_stringIcNS_11char_traitsIcEENS_9allocatorIcEEED1Ev
	jmp	LBB38_219
LBB38_187:
Ltmp262:
                                        ## kill: def $edx killed $edx killed $rdx
	movq	%rax, -168(%rbp)
	movl	%edx, -172(%rbp)
	leaq	-824(%rbp), %rdi
	callq	__ZNSt3__112basic_stringIcNS_11char_traitsIcEENS_9allocatorIcEEED1Ev
	jmp	LBB38_222
LBB38_188:
Ltmp345:
                                        ## kill: def $edx killed $edx killed $rdx
	movq	%rax, -168(%rbp)
	movl	%edx, -172(%rbp)
	jmp	LBB38_220
LBB38_189:
Ltmp288:
                                        ## kill: def $edx killed $edx killed $rdx
	movq	%rax, -168(%rbp)
	movl	%edx, -172(%rbp)
	leaq	-1128(%rbp), %rdi
	callq	__ZNSt3__112basic_stringIcNS_11char_traitsIcEENS_9allocatorIcEEED1Ev
	jmp	LBB38_220
LBB38_190:
Ltmp293:
                                        ## kill: def $edx killed $edx killed $rdx
	movq	%rax, -168(%rbp)
	movl	%edx, -172(%rbp)
	leaq	-1152(%rbp), %rdi
	callq	__ZNSt3__112basic_stringIcNS_11char_traitsIcEENS_9allocatorIcEEED1Ev
	jmp	LBB38_220
LBB38_191:
Ltmp364:
                                        ## kill: def $edx killed $edx killed $rdx
	movq	%rax, -168(%rbp)
	movl	%edx, -172(%rbp)
	leaq	-1176(%rbp), %rdi
	callq	__ZNSt3__112basic_stringIcNS_11char_traitsIcEENS_9allocatorIcEEED1Ev
	jmp	LBB38_220
LBB38_192:                              ##   in Loop: Header=BB38_74 Depth=1
Ltmp294:
	leaq	-1200(%rbp), %rdi
	callq	__ZNSt3__14__fs10filesystemL12current_pathEv
Ltmp295:
	jmp	LBB38_193
LBB38_193:                              ##   in Loop: Header=BB38_74 Depth=1
Ltmp296:
	movq	__ZNSt3__14coutE@GOTPCREL(%rip), %rdi
	leaq	-1200(%rbp), %rsi
	callq	__ZNSt3__14__fs10filesystemlsIcNS_11char_traitsIcEEEENS_9enable_ifIXaasr7is_sameIT_cEE5valuesr7is_sameIT0_S4_EE5valueERNS_13basic_ostreamIS6_S7_EEE4typeESA_RKNS1_4pathE
Ltmp297:
	movq	%rax, -1808(%rbp)       ## 8-byte Spill
	jmp	LBB38_194
LBB38_194:                              ##   in Loop: Header=BB38_74 Depth=1
Ltmp298:
	leaq	__ZNSt3__1L4endlIcNS_11char_traitsIcEEEERNS_13basic_ostreamIT_T0_EES7_(%rip), %rsi
	movq	-1808(%rbp), %rdi       ## 8-byte Reload
	callq	__ZNSt3__113basic_ostreamIcNS_11char_traitsIcEEElsEPFRS3_S4_E
Ltmp299:
	jmp	LBB38_195
LBB38_195:                              ##   in Loop: Header=BB38_74 Depth=1
	leaq	-1200(%rbp), %rdi
	callq	__ZNSt3__14__fs10filesystem4pathD1Ev
Ltmp301:
	movq	__ZNSt3__14coutE@GOTPCREL(%rip), %rdi
	leaq	L_.str.34(%rip), %rsi
	callq	__ZNSt3__1lsINS_11char_traitsIcEEEERNS_13basic_ostreamIcT_EES6_PKc
Ltmp302:
	movq	%rax, -1816(%rbp)       ## 8-byte Spill
	jmp	LBB38_196
LBB38_196:                              ##   in Loop: Header=BB38_74 Depth=1
Ltmp303:
	leaq	L_.str.35(%rip), %rsi
	movq	-1816(%rbp), %rdi       ## 8-byte Reload
	callq	__ZNSt3__1lsINS_11char_traitsIcEEEERNS_13basic_ostreamIcT_EES6_PKc
Ltmp304:
	movq	%rax, -1824(%rbp)       ## 8-byte Spill
	jmp	LBB38_197
LBB38_197:                              ##   in Loop: Header=BB38_74 Depth=1
Ltmp305:
	leaq	L_.str.24(%rip), %rsi
	movq	-1824(%rbp), %rdi       ## 8-byte Reload
	callq	__ZNSt3__1lsINS_11char_traitsIcEEEERNS_13basic_ostreamIcT_EES6_PKc
Ltmp306:
	movq	%rax, -1832(%rbp)       ## 8-byte Spill
	jmp	LBB38_198
LBB38_198:                              ##   in Loop: Header=BB38_74 Depth=1
Ltmp307:
	leaq	-1272(%rbp), %rdi
	movq	-1320(%rbp), %rsi       ## 8-byte Reload
	callq	__ZNSt3__112basic_stringIcNS_11char_traitsIcEENS_9allocatorIcEEEC1ERKS5_
Ltmp308:
	jmp	LBB38_199
LBB38_199:                              ##   in Loop: Header=BB38_74 Depth=1
Ltmp309:
	leaq	-1248(%rbp), %rdi
	leaq	-1272(%rbp), %rsi
	callq	__Z2ASNSt3__112basic_stringIcNS_11char_traitsIcEENS_9allocatorIcEEEE
Ltmp310:
	jmp	LBB38_200
LBB38_200:                              ##   in Loop: Header=BB38_74 Depth=1
	movslq	-548(%rbp), %rsi
	leaq	-112(%rbp), %rdi
	callq	__ZNSt3__16vectorINS_12basic_stringIcNS_11char_traitsIcEENS_9allocatorIcEEEENS4_IS6_EEEixEm
Ltmp312:
	leaq	-1224(%rbp), %rdi
	leaq	-1248(%rbp), %rsi
	movq	%rax, %rdx
	callq	__ZNSt3__1plIcNS_11char_traitsIcEENS_9allocatorIcEEEENS_12basic_stringIT_T0_T1_EEOS9_RKS9_
Ltmp313:
	jmp	LBB38_201
LBB38_201:                              ##   in Loop: Header=BB38_74 Depth=1
Ltmp315:
	leaq	-1224(%rbp), %rsi
	movq	-1832(%rbp), %rdi       ## 8-byte Reload
	callq	__ZNSt3__1lsIcNS_11char_traitsIcEENS_9allocatorIcEEEERNS_13basic_ostreamIT_T0_EES9_RKNS_12basic_stringIS6_S7_T1_EE
Ltmp316:
	movq	%rax, -1840(%rbp)       ## 8-byte Spill
	jmp	LBB38_202
LBB38_202:                              ##   in Loop: Header=BB38_74 Depth=1
Ltmp317:
	leaq	L_.str.34(%rip), %rsi
	movq	-1840(%rbp), %rdi       ## 8-byte Reload
	callq	__ZNSt3__1lsINS_11char_traitsIcEEEERNS_13basic_ostreamIcT_EES6_PKc
Ltmp318:
	movq	%rax, -1848(%rbp)       ## 8-byte Spill
	jmp	LBB38_203
LBB38_203:                              ##   in Loop: Header=BB38_74 Depth=1
Ltmp319:
	leaq	L_.str.36(%rip), %rsi
	movq	-1848(%rbp), %rdi       ## 8-byte Reload
	callq	__ZNSt3__1lsINS_11char_traitsIcEEEERNS_13basic_ostreamIcT_EES6_PKc
Ltmp320:
	movq	%rax, -1856(%rbp)       ## 8-byte Spill
	jmp	LBB38_204
LBB38_204:                              ##   in Loop: Header=BB38_74 Depth=1
Ltmp321:
	leaq	L_.str.19(%rip), %rsi
	movq	-1856(%rbp), %rdi       ## 8-byte Reload
	callq	__ZNSt3__1lsINS_11char_traitsIcEEEERNS_13basic_ostreamIcT_EES6_PKc
Ltmp322:
	movq	%rax, -1864(%rbp)       ## 8-byte Spill
	jmp	LBB38_205
LBB38_205:                              ##   in Loop: Header=BB38_74 Depth=1
Ltmp323:
	leaq	__ZNSt3__1L4endlIcNS_11char_traitsIcEEEERNS_13basic_ostreamIT_T0_EES7_(%rip), %rsi
	movq	-1864(%rbp), %rdi       ## 8-byte Reload
	callq	__ZNSt3__113basic_ostreamIcNS_11char_traitsIcEEElsEPFRS3_S4_E
Ltmp324:
	jmp	LBB38_206
LBB38_206:                              ##   in Loop: Header=BB38_74 Depth=1
	leaq	-1224(%rbp), %rdi
	callq	__ZNSt3__112basic_stringIcNS_11char_traitsIcEENS_9allocatorIcEEED1Ev
	leaq	-1248(%rbp), %rdi
	callq	__ZNSt3__112basic_stringIcNS_11char_traitsIcEENS_9allocatorIcEEED1Ev
	leaq	-1272(%rbp), %rdi
	callq	__ZNSt3__112basic_stringIcNS_11char_traitsIcEENS_9allocatorIcEEED1Ev
Ltmp326:
	leaq	-1296(%rbp), %rdi
	leaq	-1104(%rbp), %rsi
	callq	__ZNKSt3__118basic_stringstreamIcNS_11char_traitsIcEENS_9allocatorIcEEE3strEv
Ltmp327:
	jmp	LBB38_207
LBB38_207:                              ##   in Loop: Header=BB38_74 Depth=1
Ltmp328:
	movq	__ZNSt3__14coutE@GOTPCREL(%rip), %rdi
	leaq	-1296(%rbp), %rsi
	callq	__ZNSt3__1lsIcNS_11char_traitsIcEENS_9allocatorIcEEEERNS_13basic_ostreamIT_T0_EES9_RKNS_12basic_stringIS6_S7_T1_EE
Ltmp329:
	movq	%rax, -1872(%rbp)       ## 8-byte Spill
	jmp	LBB38_208
LBB38_208:                              ##   in Loop: Header=BB38_74 Depth=1
Ltmp330:
	leaq	L_.str.37(%rip), %rsi
	movq	-1872(%rbp), %rdi       ## 8-byte Reload
	callq	__ZNSt3__1lsINS_11char_traitsIcEEEERNS_13basic_ostreamIcT_EES6_PKc
Ltmp331:
	movq	%rax, -1880(%rbp)       ## 8-byte Spill
	jmp	LBB38_209
LBB38_209:                              ##   in Loop: Header=BB38_74 Depth=1
	movl	-516(%rbp), %eax
	movl	%eax, %ecx
	sarl	$31, %ecx
	shrl	$24, %ecx
	addl	%ecx, %eax
	sarl	$8, %eax
Ltmp332:
	movq	-1880(%rbp), %rdi       ## 8-byte Reload
	movl	%eax, %esi
	callq	__ZNSt3__113basic_ostreamIcNS_11char_traitsIcEEElsEi
Ltmp333:
	movq	%rax, -1888(%rbp)       ## 8-byte Spill
	jmp	LBB38_210
LBB38_210:                              ##   in Loop: Header=BB38_74 Depth=1
Ltmp334:
	leaq	__ZNSt3__1L4endlIcNS_11char_traitsIcEEEERNS_13basic_ostreamIT_T0_EES7_(%rip), %rsi
	movq	-1888(%rbp), %rdi       ## 8-byte Reload
	callq	__ZNSt3__113basic_ostreamIcNS_11char_traitsIcEEElsEPFRS3_S4_E
Ltmp335:
	jmp	LBB38_211
LBB38_211:                              ##   in Loop: Header=BB38_74 Depth=1
	leaq	-1296(%rbp), %rdi
	callq	__ZNSt3__112basic_stringIcNS_11char_traitsIcEENS_9allocatorIcEEED1Ev
	jmp	LBB38_219
LBB38_212:
Ltmp300:
                                        ## kill: def $edx killed $edx killed $rdx
	movq	%rax, -168(%rbp)
	movl	%edx, -172(%rbp)
	leaq	-1200(%rbp), %rdi
	callq	__ZNSt3__14__fs10filesystem4pathD1Ev
	jmp	LBB38_220
LBB38_213:
Ltmp311:
                                        ## kill: def $edx killed $edx killed $rdx
	movq	%rax, -168(%rbp)
	movl	%edx, -172(%rbp)
	jmp	LBB38_217
LBB38_214:
Ltmp314:
                                        ## kill: def $edx killed $edx killed $rdx
	movq	%rax, -168(%rbp)
	movl	%edx, -172(%rbp)
	jmp	LBB38_216
LBB38_215:
Ltmp325:
                                        ## kill: def $edx killed $edx killed $rdx
	movq	%rax, -168(%rbp)
	movl	%edx, -172(%rbp)
	leaq	-1224(%rbp), %rdi
	callq	__ZNSt3__112basic_stringIcNS_11char_traitsIcEENS_9allocatorIcEEED1Ev
LBB38_216:
	leaq	-1248(%rbp), %rdi
	callq	__ZNSt3__112basic_stringIcNS_11char_traitsIcEENS_9allocatorIcEEED1Ev
LBB38_217:
	leaq	-1272(%rbp), %rdi
	callq	__ZNSt3__112basic_stringIcNS_11char_traitsIcEENS_9allocatorIcEEED1Ev
	jmp	LBB38_220
LBB38_218:
Ltmp336:
                                        ## kill: def $edx killed $edx killed $rdx
	movq	%rax, -168(%rbp)
	movl	%edx, -172(%rbp)
	leaq	-1296(%rbp), %rdi
	callq	__ZNSt3__112basic_stringIcNS_11char_traitsIcEENS_9allocatorIcEEED1Ev
	jmp	LBB38_220
LBB38_219:                              ##   in Loop: Header=BB38_74 Depth=1
	leaq	-1104(%rbp), %rdi
	callq	__ZNSt3__118basic_stringstreamIcNS_11char_traitsIcEENS_9allocatorIcEEED1Ev
	jmp	LBB38_221
LBB38_220:
	leaq	-1104(%rbp), %rdi
	callq	__ZNSt3__118basic_stringstreamIcNS_11char_traitsIcEENS_9allocatorIcEEED1Ev
	jmp	LBB38_222
LBB38_221:                              ##   in Loop: Header=BB38_74 Depth=1
	leaq	-648(%rbp), %rdi
	callq	__ZNSt3__112basic_stringIcNS_11char_traitsIcEENS_9allocatorIcEEED1Ev
	leaq	-576(%rbp), %rdi
	callq	__ZNSt3__112basic_stringIcNS_11char_traitsIcEENS_9allocatorIcEEED1Ev
	jmp	LBB38_225
LBB38_222:
	leaq	-648(%rbp), %rdi
	callq	__ZNSt3__112basic_stringIcNS_11char_traitsIcEENS_9allocatorIcEEED1Ev
LBB38_223:
	leaq	-576(%rbp), %rdi
	callq	__ZNSt3__112basic_stringIcNS_11char_traitsIcEENS_9allocatorIcEEED1Ev
	jmp	LBB38_228
LBB38_224:                              ##   in Loop: Header=BB38_74 Depth=1
	jmp	LBB38_225
LBB38_225:                              ##   in Loop: Header=BB38_74 Depth=1
	jmp	LBB38_226
LBB38_226:                              ##   in Loop: Header=BB38_74 Depth=1
	movl	-548(%rbp), %eax
	addl	$1, %eax
	movl	%eax, -548(%rbp)
	jmp	LBB38_74
LBB38_227:
	movl	-516(%rbp), %eax
	leaq	-304(%rbp), %rdi
	movl	%eax, -1892(%rbp)       ## 4-byte Spill
	callq	__ZNSt3__112basic_stringIcNS_11char_traitsIcEENS_9allocatorIcEEED1Ev
	leaq	-280(%rbp), %rdi
	callq	__ZNSt3__112basic_stringIcNS_11char_traitsIcEENS_9allocatorIcEEED1Ev
	leaq	-160(%rbp), %rdi
	callq	__ZNSt3__16vectorINS_12basic_stringIcNS_11char_traitsIcEENS_9allocatorIcEEEENS4_IS6_EEED1Ev
	leaq	-136(%rbp), %rdi
	callq	__ZNSt3__16vectorINS_12basic_stringIcNS_11char_traitsIcEENS_9allocatorIcEEEENS4_IS6_EEED1Ev
	leaq	-112(%rbp), %rdi
	callq	__ZNSt3__16vectorINS_12basic_stringIcNS_11char_traitsIcEENS_9allocatorIcEEEENS4_IS6_EEED1Ev
	leaq	-88(%rbp), %rdi
	callq	__ZNSt3__16vectorINS_12basic_stringIcNS_11char_traitsIcEENS_9allocatorIcEEEENS4_IS6_EEED1Ev
	leaq	-64(%rbp), %rdi
	callq	__ZNSt3__16vectorINS_12basic_stringIcNS_11char_traitsIcEENS_9allocatorIcEEEENS4_IS6_EEED1Ev
	movl	-1892(%rbp), %eax       ## 4-byte Reload
	addq	$1904, %rsp             ## imm = 0x770
	popq	%rbp
	retq
LBB38_228:
	leaq	-304(%rbp), %rdi
	callq	__ZNSt3__112basic_stringIcNS_11char_traitsIcEENS_9allocatorIcEEED1Ev
	leaq	-280(%rbp), %rdi
	callq	__ZNSt3__112basic_stringIcNS_11char_traitsIcEENS_9allocatorIcEEED1Ev
LBB38_229:
	leaq	-160(%rbp), %rdi
	callq	__ZNSt3__16vectorINS_12basic_stringIcNS_11char_traitsIcEENS_9allocatorIcEEEENS4_IS6_EEED1Ev
	leaq	-136(%rbp), %rdi
	callq	__ZNSt3__16vectorINS_12basic_stringIcNS_11char_traitsIcEENS_9allocatorIcEEEENS4_IS6_EEED1Ev
	leaq	-112(%rbp), %rdi
	callq	__ZNSt3__16vectorINS_12basic_stringIcNS_11char_traitsIcEENS_9allocatorIcEEEENS4_IS6_EEED1Ev
	leaq	-88(%rbp), %rdi
	callq	__ZNSt3__16vectorINS_12basic_stringIcNS_11char_traitsIcEENS_9allocatorIcEEEENS4_IS6_EEED1Ev
	leaq	-64(%rbp), %rdi
	callq	__ZNSt3__16vectorINS_12basic_stringIcNS_11char_traitsIcEENS_9allocatorIcEEEENS4_IS6_EEED1Ev
## %bb.230:
	movq	-168(%rbp), %rdi
	callq	__Unwind_Resume
	ud2
Lfunc_end11:
	.cfi_endproc
	.section	__TEXT,__gcc_except_tab
	.p2align	2
GCC_except_table38:
Lexception11:
	.byte	255                     ## @LPStart Encoding = omit
	.byte	255                     ## @TType Encoding = omit
	.byte	1                       ## Call site Encoding = uleb128
	.uleb128 Lcst_end11-Lcst_begin11
Lcst_begin11:
	.uleb128 Ltmp151-Lfunc_begin11  ## >> Call Site 1 <<
	.uleb128 Ltmp160-Ltmp151        ##   Call between Ltmp151 and Ltmp160
	.uleb128 Ltmp161-Lfunc_begin11  ##     jumps to Ltmp161
	.byte	0                       ##   On action: cleanup
	.uleb128 Ltmp405-Lfunc_begin11  ## >> Call Site 2 <<
	.uleb128 Ltmp406-Ltmp405        ##   Call between Ltmp405 and Ltmp406
	.uleb128 Ltmp407-Lfunc_begin11  ##     jumps to Ltmp407
	.byte	0                       ##   On action: cleanup
	.uleb128 Ltmp410-Lfunc_begin11  ## >> Call Site 3 <<
	.uleb128 Ltmp411-Ltmp410        ##   Call between Ltmp410 and Ltmp411
	.uleb128 Ltmp412-Lfunc_begin11  ##     jumps to Ltmp412
	.byte	0                       ##   On action: cleanup
	.uleb128 Ltmp413-Lfunc_begin11  ## >> Call Site 4 <<
	.uleb128 Ltmp414-Ltmp413        ##   Call between Ltmp413 and Ltmp414
	.uleb128 Ltmp415-Lfunc_begin11  ##     jumps to Ltmp415
	.byte	0                       ##   On action: cleanup
	.uleb128 Ltmp408-Lfunc_begin11  ## >> Call Site 5 <<
	.uleb128 Ltmp409-Ltmp408        ##   Call between Ltmp408 and Ltmp409
	.uleb128 Ltmp412-Lfunc_begin11  ##     jumps to Ltmp412
	.byte	0                       ##   On action: cleanup
	.uleb128 Ltmp375-Lfunc_begin11  ## >> Call Site 6 <<
	.uleb128 Ltmp376-Ltmp375        ##   Call between Ltmp375 and Ltmp376
	.uleb128 Ltmp392-Lfunc_begin11  ##     jumps to Ltmp392
	.byte	0                       ##   On action: cleanup
	.uleb128 Ltmp377-Lfunc_begin11  ## >> Call Site 7 <<
	.uleb128 Ltmp378-Ltmp377        ##   Call between Ltmp377 and Ltmp378
	.uleb128 Ltmp379-Lfunc_begin11  ##     jumps to Ltmp379
	.byte	0                       ##   On action: cleanup
	.uleb128 Ltmp380-Lfunc_begin11  ## >> Call Site 8 <<
	.uleb128 Ltmp381-Ltmp380        ##   Call between Ltmp380 and Ltmp381
	.uleb128 Ltmp382-Lfunc_begin11  ##     jumps to Ltmp382
	.byte	0                       ##   On action: cleanup
	.uleb128 Ltmp383-Lfunc_begin11  ## >> Call Site 9 <<
	.uleb128 Ltmp384-Ltmp383        ##   Call between Ltmp383 and Ltmp384
	.uleb128 Ltmp385-Lfunc_begin11  ##     jumps to Ltmp385
	.byte	0                       ##   On action: cleanup
	.uleb128 Ltmp386-Lfunc_begin11  ## >> Call Site 10 <<
	.uleb128 Ltmp391-Ltmp386        ##   Call between Ltmp386 and Ltmp391
	.uleb128 Ltmp392-Lfunc_begin11  ##     jumps to Ltmp392
	.byte	0                       ##   On action: cleanup
	.uleb128 Ltmp393-Lfunc_begin11  ## >> Call Site 11 <<
	.uleb128 Ltmp394-Ltmp393        ##   Call between Ltmp393 and Ltmp394
	.uleb128 Ltmp395-Lfunc_begin11  ##     jumps to Ltmp395
	.byte	0                       ##   On action: cleanup
	.uleb128 Ltmp396-Lfunc_begin11  ## >> Call Site 12 <<
	.uleb128 Ltmp397-Ltmp396        ##   Call between Ltmp396 and Ltmp397
	.uleb128 Ltmp398-Lfunc_begin11  ##     jumps to Ltmp398
	.byte	0                       ##   On action: cleanup
	.uleb128 Ltmp399-Lfunc_begin11  ## >> Call Site 13 <<
	.uleb128 Ltmp400-Ltmp399        ##   Call between Ltmp399 and Ltmp400
	.uleb128 Ltmp401-Lfunc_begin11  ##     jumps to Ltmp401
	.byte	0                       ##   On action: cleanup
	.uleb128 Ltmp402-Lfunc_begin11  ## >> Call Site 14 <<
	.uleb128 Ltmp403-Ltmp402        ##   Call between Ltmp402 and Ltmp403
	.uleb128 Ltmp404-Lfunc_begin11  ##     jumps to Ltmp404
	.byte	0                       ##   On action: cleanup
	.uleb128 Ltmp365-Lfunc_begin11  ## >> Call Site 15 <<
	.uleb128 Ltmp370-Ltmp365        ##   Call between Ltmp365 and Ltmp370
	.uleb128 Ltmp371-Lfunc_begin11  ##     jumps to Ltmp371
	.byte	0                       ##   On action: cleanup
	.uleb128 Ltmp372-Lfunc_begin11  ## >> Call Site 16 <<
	.uleb128 Ltmp373-Ltmp372        ##   Call between Ltmp372 and Ltmp373
	.uleb128 Ltmp374-Lfunc_begin11  ##     jumps to Ltmp374
	.byte	0                       ##   On action: cleanup
	.uleb128 Ltmp162-Lfunc_begin11  ## >> Call Site 17 <<
	.uleb128 Ltmp171-Ltmp162        ##   Call between Ltmp162 and Ltmp171
	.uleb128 Ltmp371-Lfunc_begin11  ##     jumps to Ltmp371
	.byte	0                       ##   On action: cleanup
	.uleb128 Ltmp172-Lfunc_begin11  ## >> Call Site 18 <<
	.uleb128 Ltmp173-Ltmp172        ##   Call between Ltmp172 and Ltmp173
	.uleb128 Ltmp186-Lfunc_begin11  ##     jumps to Ltmp186
	.byte	0                       ##   On action: cleanup
	.uleb128 Ltmp174-Lfunc_begin11  ## >> Call Site 19 <<
	.uleb128 Ltmp175-Ltmp174        ##   Call between Ltmp174 and Ltmp175
	.uleb128 Ltmp176-Lfunc_begin11  ##     jumps to Ltmp176
	.byte	0                       ##   On action: cleanup
	.uleb128 Ltmp177-Lfunc_begin11  ## >> Call Site 20 <<
	.uleb128 Ltmp178-Ltmp177        ##   Call between Ltmp177 and Ltmp178
	.uleb128 Ltmp179-Lfunc_begin11  ##     jumps to Ltmp179
	.byte	0                       ##   On action: cleanup
	.uleb128 Ltmp182-Lfunc_begin11  ## >> Call Site 21 <<
	.uleb128 Ltmp185-Ltmp182        ##   Call between Ltmp182 and Ltmp185
	.uleb128 Ltmp186-Lfunc_begin11  ##     jumps to Ltmp186
	.byte	0                       ##   On action: cleanup
	.uleb128 Ltmp187-Lfunc_begin11  ## >> Call Site 22 <<
	.uleb128 Ltmp188-Ltmp187        ##   Call between Ltmp187 and Ltmp188
	.uleb128 Ltmp265-Lfunc_begin11  ##     jumps to Ltmp265
	.byte	0                       ##   On action: cleanup
	.uleb128 Ltmp189-Lfunc_begin11  ## >> Call Site 23 <<
	.uleb128 Ltmp190-Ltmp189        ##   Call between Ltmp189 and Ltmp190
	.uleb128 Ltmp191-Lfunc_begin11  ##     jumps to Ltmp191
	.byte	0                       ##   On action: cleanup
	.uleb128 Ltmp192-Lfunc_begin11  ## >> Call Site 24 <<
	.uleb128 Ltmp193-Ltmp192        ##   Call between Ltmp192 and Ltmp193
	.uleb128 Ltmp265-Lfunc_begin11  ##     jumps to Ltmp265
	.byte	0                       ##   On action: cleanup
	.uleb128 Ltmp194-Lfunc_begin11  ## >> Call Site 25 <<
	.uleb128 Ltmp195-Ltmp194        ##   Call between Ltmp194 and Ltmp195
	.uleb128 Ltmp196-Lfunc_begin11  ##     jumps to Ltmp196
	.byte	0                       ##   On action: cleanup
	.uleb128 Ltmp197-Lfunc_begin11  ## >> Call Site 26 <<
	.uleb128 Ltmp198-Ltmp197        ##   Call between Ltmp197 and Ltmp198
	.uleb128 Ltmp199-Lfunc_begin11  ##     jumps to Ltmp199
	.byte	0                       ##   On action: cleanup
	.uleb128 Ltmp239-Lfunc_begin11  ## >> Call Site 27 <<
	.uleb128 Ltmp248-Ltmp239        ##   Call between Ltmp239 and Ltmp248
	.uleb128 Ltmp265-Lfunc_begin11  ##     jumps to Ltmp265
	.byte	0                       ##   On action: cleanup
	.uleb128 Ltmp249-Lfunc_begin11  ## >> Call Site 28 <<
	.uleb128 Ltmp256-Ltmp249        ##   Call between Ltmp249 and Ltmp256
	.uleb128 Ltmp257-Lfunc_begin11  ##     jumps to Ltmp257
	.byte	0                       ##   On action: cleanup
	.uleb128 Ltmp200-Lfunc_begin11  ## >> Call Site 29 <<
	.uleb128 Ltmp221-Ltmp200        ##   Call between Ltmp200 and Ltmp221
	.uleb128 Ltmp265-Lfunc_begin11  ##     jumps to Ltmp265
	.byte	0                       ##   On action: cleanup
	.uleb128 Ltmp222-Lfunc_begin11  ## >> Call Site 30 <<
	.uleb128 Ltmp237-Ltmp222        ##   Call between Ltmp222 and Ltmp237
	.uleb128 Ltmp238-Lfunc_begin11  ##     jumps to Ltmp238
	.byte	0                       ##   On action: cleanup
	.uleb128 Ltmp202-Lfunc_begin11  ## >> Call Site 31 <<
	.uleb128 Ltmp259-Ltmp202        ##   Call between Ltmp202 and Ltmp259
	.uleb128 Ltmp265-Lfunc_begin11  ##     jumps to Ltmp265
	.byte	0                       ##   On action: cleanup
	.uleb128 Ltmp260-Lfunc_begin11  ## >> Call Site 32 <<
	.uleb128 Ltmp261-Ltmp260        ##   Call between Ltmp260 and Ltmp261
	.uleb128 Ltmp262-Lfunc_begin11  ##     jumps to Ltmp262
	.byte	0                       ##   On action: cleanup
	.uleb128 Ltmp263-Lfunc_begin11  ## >> Call Site 33 <<
	.uleb128 Ltmp264-Ltmp263        ##   Call between Ltmp263 and Ltmp264
	.uleb128 Ltmp265-Lfunc_begin11  ##     jumps to Ltmp265
	.byte	0                       ##   On action: cleanup
	.uleb128 Ltmp266-Lfunc_begin11  ## >> Call Site 34 <<
	.uleb128 Ltmp279-Ltmp266        ##   Call between Ltmp266 and Ltmp279
	.uleb128 Ltmp345-Lfunc_begin11  ##     jumps to Ltmp345
	.byte	0                       ##   On action: cleanup
	.uleb128 Ltmp280-Lfunc_begin11  ## >> Call Site 35 <<
	.uleb128 Ltmp287-Ltmp280        ##   Call between Ltmp280 and Ltmp287
	.uleb128 Ltmp288-Lfunc_begin11  ##     jumps to Ltmp288
	.byte	0                       ##   On action: cleanup
	.uleb128 Ltmp289-Lfunc_begin11  ## >> Call Site 36 <<
	.uleb128 Ltmp290-Ltmp289        ##   Call between Ltmp289 and Ltmp290
	.uleb128 Ltmp345-Lfunc_begin11  ##     jumps to Ltmp345
	.byte	0                       ##   On action: cleanup
	.uleb128 Ltmp291-Lfunc_begin11  ## >> Call Site 37 <<
	.uleb128 Ltmp292-Ltmp291        ##   Call between Ltmp291 and Ltmp292
	.uleb128 Ltmp293-Lfunc_begin11  ##     jumps to Ltmp293
	.byte	0                       ##   On action: cleanup
	.uleb128 Ltmp337-Lfunc_begin11  ## >> Call Site 38 <<
	.uleb128 Ltmp344-Ltmp337        ##   Call between Ltmp337 and Ltmp344
	.uleb128 Ltmp345-Lfunc_begin11  ##     jumps to Ltmp345
	.byte	0                       ##   On action: cleanup
	.uleb128 Ltmp346-Lfunc_begin11  ## >> Call Site 39 <<
	.uleb128 Ltmp363-Ltmp346        ##   Call between Ltmp346 and Ltmp363
	.uleb128 Ltmp364-Lfunc_begin11  ##     jumps to Ltmp364
	.byte	0                       ##   On action: cleanup
	.uleb128 Ltmp294-Lfunc_begin11  ## >> Call Site 40 <<
	.uleb128 Ltmp295-Ltmp294        ##   Call between Ltmp294 and Ltmp295
	.uleb128 Ltmp345-Lfunc_begin11  ##     jumps to Ltmp345
	.byte	0                       ##   On action: cleanup
	.uleb128 Ltmp296-Lfunc_begin11  ## >> Call Site 41 <<
	.uleb128 Ltmp299-Ltmp296        ##   Call between Ltmp296 and Ltmp299
	.uleb128 Ltmp300-Lfunc_begin11  ##     jumps to Ltmp300
	.byte	0                       ##   On action: cleanup
	.uleb128 Ltmp301-Lfunc_begin11  ## >> Call Site 42 <<
	.uleb128 Ltmp308-Ltmp301        ##   Call between Ltmp301 and Ltmp308
	.uleb128 Ltmp345-Lfunc_begin11  ##     jumps to Ltmp345
	.byte	0                       ##   On action: cleanup
	.uleb128 Ltmp309-Lfunc_begin11  ## >> Call Site 43 <<
	.uleb128 Ltmp310-Ltmp309        ##   Call between Ltmp309 and Ltmp310
	.uleb128 Ltmp311-Lfunc_begin11  ##     jumps to Ltmp311
	.byte	0                       ##   On action: cleanup
	.uleb128 Ltmp312-Lfunc_begin11  ## >> Call Site 44 <<
	.uleb128 Ltmp313-Ltmp312        ##   Call between Ltmp312 and Ltmp313
	.uleb128 Ltmp314-Lfunc_begin11  ##     jumps to Ltmp314
	.byte	0                       ##   On action: cleanup
	.uleb128 Ltmp315-Lfunc_begin11  ## >> Call Site 45 <<
	.uleb128 Ltmp324-Ltmp315        ##   Call between Ltmp315 and Ltmp324
	.uleb128 Ltmp325-Lfunc_begin11  ##     jumps to Ltmp325
	.byte	0                       ##   On action: cleanup
	.uleb128 Ltmp326-Lfunc_begin11  ## >> Call Site 46 <<
	.uleb128 Ltmp327-Ltmp326        ##   Call between Ltmp326 and Ltmp327
	.uleb128 Ltmp345-Lfunc_begin11  ##     jumps to Ltmp345
	.byte	0                       ##   On action: cleanup
	.uleb128 Ltmp328-Lfunc_begin11  ## >> Call Site 47 <<
	.uleb128 Ltmp335-Ltmp328        ##   Call between Ltmp328 and Ltmp335
	.uleb128 Ltmp336-Lfunc_begin11  ##     jumps to Ltmp336
	.byte	0                       ##   On action: cleanup
	.uleb128 Ltmp335-Lfunc_begin11  ## >> Call Site 48 <<
	.uleb128 Lfunc_end11-Ltmp335    ##   Call between Ltmp335 and Lfunc_end11
	.byte	0                       ##     has no landing pad
	.byte	0                       ##   On action: cleanup
Lcst_end11:
	.p2align	2
                                        ## -- End function
	.section	__TEXT,__text,regular,pure_instructions
	.p2align	4, 0x90         ## -- Begin function _ZNSt3__1plIcNS_11char_traitsIcEENS_9allocatorIcEEEENS_12basic_stringIT_T0_T1_EEOS9_RKS9_
__ZNSt3__1plIcNS_11char_traitsIcEENS_9allocatorIcEEEENS_12basic_stringIT_T0_T1_EEOS9_RKS9_: ## @_ZNSt3__1plIcNS_11char_traitsIcEENS_9allocatorIcEEEENS_12basic_stringIT_T0_T1_EEOS9_RKS9_
	.cfi_startproc
## %bb.0:
	pushq	%rbp
	.cfi_def_cfa_offset 16
	.cfi_offset %rbp, -16
	movq	%rsp, %rbp
	.cfi_def_cfa_register %rbp
	subq	$32, %rsp
	movq	%rdi, %rax
	movq	%rsi, -8(%rbp)
	movq	%rdx, -16(%rbp)
	movq	-8(%rbp), %rcx
	movq	-16(%rbp), %rsi
	movq	%rdi, -24(%rbp)         ## 8-byte Spill
	movq	%rcx, %rdi
	movq	%rax, -32(%rbp)         ## 8-byte Spill
	callq	__ZNSt3__112basic_stringIcNS_11char_traitsIcEENS_9allocatorIcEEE6appendERKS5_
	movq	%rax, %rdi
	callq	__ZNSt3__1L4moveIRNS_12basic_stringIcNS_11char_traitsIcEENS_9allocatorIcEEEEEEONS_16remove_referenceIT_E4typeEOS9_
	movq	-24(%rbp), %rdi         ## 8-byte Reload
	movq	%rax, %rsi
	callq	__ZNSt3__112basic_stringIcNS_11char_traitsIcEENS_9allocatorIcEEEC1EOS5_
	movq	-32(%rbp), %rax         ## 8-byte Reload
	addq	$32, %rsp
	popq	%rbp
	retq
	.cfi_endproc
                                        ## -- End function
	.p2align	4, 0x90         ## -- Begin function _ZNSt3__1plIcNS_11char_traitsIcEENS_9allocatorIcEEEENS_12basic_stringIT_T0_T1_EEPKS6_OS9_
__ZNSt3__1plIcNS_11char_traitsIcEENS_9allocatorIcEEEENS_12basic_stringIT_T0_T1_EEPKS6_OS9_: ## @_ZNSt3__1plIcNS_11char_traitsIcEENS_9allocatorIcEEEENS_12basic_stringIT_T0_T1_EEPKS6_OS9_
	.cfi_startproc
## %bb.0:
	pushq	%rbp
	.cfi_def_cfa_offset 16
	.cfi_offset %rbp, -16
	movq	%rsp, %rbp
	.cfi_def_cfa_register %rbp
	subq	$48, %rsp
	movq	%rdi, %rax
	xorl	%ecx, %ecx
	movl	%ecx, %r8d
	movq	%rsi, -8(%rbp)
	movq	%rdx, -16(%rbp)
	movq	-16(%rbp), %rdx
	movq	-8(%rbp), %rsi
	movq	%rdi, -24(%rbp)         ## 8-byte Spill
	movq	%rdx, %rdi
	movq	%rsi, -32(%rbp)         ## 8-byte Spill
	movq	%r8, %rsi
	movq	-32(%rbp), %rdx         ## 8-byte Reload
	movq	%rax, -40(%rbp)         ## 8-byte Spill
	callq	__ZNSt3__112basic_stringIcNS_11char_traitsIcEENS_9allocatorIcEEE6insertEmPKc
	movq	%rax, %rdi
	callq	__ZNSt3__1L4moveIRNS_12basic_stringIcNS_11char_traitsIcEENS_9allocatorIcEEEEEEONS_16remove_referenceIT_E4typeEOS9_
	movq	-24(%rbp), %rdi         ## 8-byte Reload
	movq	%rax, %rsi
	callq	__ZNSt3__112basic_stringIcNS_11char_traitsIcEENS_9allocatorIcEEEC1EOS5_
	movq	-40(%rbp), %rax         ## 8-byte Reload
	addq	$48, %rsp
	popq	%rbp
	retq
	.cfi_endproc
                                        ## -- End function
	.p2align	4, 0x90         ## -- Begin function _ZNSt3__112basic_stringIcNS_11char_traitsIcEENS_9allocatorIcEEEaSEPKc
__ZNSt3__112basic_stringIcNS_11char_traitsIcEENS_9allocatorIcEEEaSEPKc: ## @_ZNSt3__112basic_stringIcNS_11char_traitsIcEENS_9allocatorIcEEEaSEPKc
	.cfi_startproc
## %bb.0:
	pushq	%rbp
	.cfi_def_cfa_offset 16
	.cfi_offset %rbp, -16
	movq	%rsp, %rbp
	.cfi_def_cfa_register %rbp
	subq	$16, %rsp
	movq	%rdi, -8(%rbp)
	movq	%rsi, -16(%rbp)
	movq	-8(%rbp), %rdi
	movq	-16(%rbp), %rsi
	callq	__ZNSt3__112basic_stringIcNS_11char_traitsIcEENS_9allocatorIcEEE6assignEPKc
	addq	$16, %rsp
	popq	%rbp
	retq
	.cfi_endproc
                                        ## -- End function
	.globl	__ZNSt3__1plIcNS_11char_traitsIcEENS_9allocatorIcEEEENS_12basic_stringIT_T0_T1_EERKS9_SB_ ## -- Begin function _ZNSt3__1plIcNS_11char_traitsIcEENS_9allocatorIcEEEENS_12basic_stringIT_T0_T1_EERKS9_SB_
	.weak_definition	__ZNSt3__1plIcNS_11char_traitsIcEENS_9allocatorIcEEEENS_12basic_stringIT_T0_T1_EERKS9_SB_
	.p2align	4, 0x90
__ZNSt3__1plIcNS_11char_traitsIcEENS_9allocatorIcEEEENS_12basic_stringIT_T0_T1_EERKS9_SB_: ## @_ZNSt3__1plIcNS_11char_traitsIcEENS_9allocatorIcEEEENS_12basic_stringIT_T0_T1_EERKS9_SB_
Lfunc_begin12:
	.cfi_startproc
	.cfi_personality 155, ___gxx_personality_v0
	.cfi_lsda 16, Lexception12
## %bb.0:
	pushq	%rbp
	.cfi_def_cfa_offset 16
	.cfi_offset %rbp, -16
	movq	%rsp, %rbp
	.cfi_def_cfa_register %rbp
	subq	$96, %rsp
	movq	%rdi, %rax
	movq	%rsi, -8(%rbp)
	movq	%rdx, -16(%rbp)
	movb	$0, -17(%rbp)
	movq	-8(%rbp), %rcx
	movq	%rdi, -72(%rbp)         ## 8-byte Spill
	movq	%rcx, %rdi
	movq	%rax, -80(%rbp)         ## 8-byte Spill
	callq	__ZNKSt3__112basic_stringIcNS_11char_traitsIcEENS_9allocatorIcEEE13get_allocatorEv
	leaq	-24(%rbp), %rsi
	movq	-72(%rbp), %rdi         ## 8-byte Reload
	callq	__ZNSt3__112basic_stringIcNS_11char_traitsIcEENS_9allocatorIcEEEC1ERKS4_
	movq	-8(%rbp), %rdi
	callq	__ZNKSt3__112basic_stringIcNS_11char_traitsIcEENS_9allocatorIcEEE4sizeEv
	movq	%rax, -40(%rbp)
	movq	-16(%rbp), %rdi
	callq	__ZNKSt3__112basic_stringIcNS_11char_traitsIcEENS_9allocatorIcEEE4sizeEv
	movq	%rax, -48(%rbp)
	movq	-8(%rbp), %rdi
	callq	__ZNKSt3__112basic_stringIcNS_11char_traitsIcEENS_9allocatorIcEEE4dataEv
	movq	-40(%rbp), %rcx
	movq	-48(%rbp), %rdx
	movq	%rcx, %rsi
	addq	%rdx, %rsi
Ltmp416:
	movq	-72(%rbp), %rdi         ## 8-byte Reload
	movq	%rsi, -88(%rbp)         ## 8-byte Spill
	movq	%rax, %rsi
	movq	%rcx, %rdx
	movq	-88(%rbp), %rcx         ## 8-byte Reload
	callq	__ZNSt3__112basic_stringIcNS_11char_traitsIcEENS_9allocatorIcEEE6__initEPKcmm
Ltmp417:
	jmp	LBB42_1
LBB42_1:
	movq	-16(%rbp), %rdi
	callq	__ZNKSt3__112basic_stringIcNS_11char_traitsIcEENS_9allocatorIcEEE4dataEv
	movq	-48(%rbp), %rdx
Ltmp418:
	movq	-72(%rbp), %rdi         ## 8-byte Reload
	movq	%rax, %rsi
	callq	__ZNSt3__112basic_stringIcNS_11char_traitsIcEENS_9allocatorIcEEE6appendEPKcm
Ltmp419:
	jmp	LBB42_2
LBB42_2:
	movb	$1, -17(%rbp)
	testb	$1, -17(%rbp)
	jne	LBB42_5
	jmp	LBB42_4
LBB42_3:
Ltmp420:
                                        ## kill: def $edx killed $edx killed $rdx
	movq	%rax, -56(%rbp)
	movl	%edx, -60(%rbp)
	movq	-72(%rbp), %rdi         ## 8-byte Reload
	callq	__ZNSt3__112basic_stringIcNS_11char_traitsIcEENS_9allocatorIcEEED1Ev
	jmp	LBB42_6
LBB42_4:
	movq	-72(%rbp), %rdi         ## 8-byte Reload
	callq	__ZNSt3__112basic_stringIcNS_11char_traitsIcEENS_9allocatorIcEEED1Ev
LBB42_5:
	movq	-80(%rbp), %rax         ## 8-byte Reload
	addq	$96, %rsp
	popq	%rbp
	retq
LBB42_6:
	movq	-56(%rbp), %rdi
	callq	__Unwind_Resume
	ud2
Lfunc_end12:
	.cfi_endproc
	.section	__TEXT,__gcc_except_tab
	.p2align	2
GCC_except_table42:
Lexception12:
	.byte	255                     ## @LPStart Encoding = omit
	.byte	255                     ## @TType Encoding = omit
	.byte	1                       ## Call site Encoding = uleb128
	.uleb128 Lcst_end12-Lcst_begin12
Lcst_begin12:
	.uleb128 Ltmp416-Lfunc_begin12  ## >> Call Site 1 <<
	.uleb128 Ltmp419-Ltmp416        ##   Call between Ltmp416 and Ltmp419
	.uleb128 Ltmp420-Lfunc_begin12  ##     jumps to Ltmp420
	.byte	0                       ##   On action: cleanup
	.uleb128 Ltmp419-Lfunc_begin12  ## >> Call Site 2 <<
	.uleb128 Lfunc_end12-Ltmp419    ##   Call between Ltmp419 and Lfunc_end12
	.byte	0                       ##     has no landing pad
	.byte	0                       ##   On action: cleanup
Lcst_end12:
	.p2align	2
                                        ## -- End function
	.section	__TEXT,__text,regular,pure_instructions
	.p2align	4, 0x90         ## -- Begin function _ZNSt3__112basic_stringIcNS_11char_traitsIcEENS_9allocatorIcEEEaSEOS5_
__ZNSt3__112basic_stringIcNS_11char_traitsIcEENS_9allocatorIcEEEaSEOS5_: ## @_ZNSt3__112basic_stringIcNS_11char_traitsIcEENS_9allocatorIcEEEaSEOS5_
	.cfi_startproc
## %bb.0:
	pushq	%rbp
	.cfi_def_cfa_offset 16
	.cfi_offset %rbp, -16
	movq	%rsp, %rbp
	.cfi_def_cfa_register %rbp
	subq	$32, %rsp
	movq	%rdi, -8(%rbp)
	movq	%rsi, -16(%rbp)
	movq	-8(%rbp), %rax
	movq	-16(%rbp), %rsi
	movq	%rax, %rdi
	movq	%rax, -32(%rbp)         ## 8-byte Spill
	callq	__ZNSt3__112basic_stringIcNS_11char_traitsIcEENS_9allocatorIcEEE13__move_assignERS5_NS_17integral_constantIbLb1EEE
	movq	-32(%rbp), %rax         ## 8-byte Reload
	addq	$32, %rsp
	popq	%rbp
	retq
	.cfi_endproc
                                        ## -- End function
	.p2align	4, 0x90         ## -- Begin function _ZNSt3__118basic_stringstreamIcNS_11char_traitsIcEENS_9allocatorIcEEEC1Ej
__ZNSt3__118basic_stringstreamIcNS_11char_traitsIcEENS_9allocatorIcEEEC1Ej: ## @_ZNSt3__118basic_stringstreamIcNS_11char_traitsIcEENS_9allocatorIcEEEC1Ej
Lfunc_begin13:
	.cfi_startproc
	.cfi_personality 155, ___gxx_personality_v0
	.cfi_lsda 16, Lexception13
## %bb.0:
	pushq	%rbp
	.cfi_def_cfa_offset 16
	.cfi_offset %rbp, -16
	movq	%rsp, %rbp
	.cfi_def_cfa_register %rbp
	subq	$48, %rsp
	movq	%rdi, -8(%rbp)
	movl	%esi, -12(%rbp)
	movq	-8(%rbp), %rax
	movq	%rax, %rcx
	subq	$-128, %rcx
	movq	%rcx, %rdi
	movq	%rax, -40(%rbp)         ## 8-byte Spill
	callq	__ZNSt3__19basic_iosIcNS_11char_traitsIcEEEC2Ev
	movq	__ZTVNSt3__118basic_stringstreamIcNS_11char_traitsIcEENS_9allocatorIcEEEE@GOTPCREL(%rip), %rax
	movq	%rax, %rcx
	addq	$24, %rcx
	movq	-40(%rbp), %rdx         ## 8-byte Reload
	movq	%rcx, (%rdx)
	movq	%rax, %rcx
	addq	$104, %rcx
	movq	%rcx, 128(%rdx)
	addq	$64, %rax
	movq	%rax, 16(%rdx)
	addq	$24, %rdx
Ltmp421:
	movq	__ZTTNSt3__118basic_stringstreamIcNS_11char_traitsIcEENS_9allocatorIcEEEE@GOTPCREL(%rip), %rax
	addq	$8, %rax
	movq	-40(%rbp), %rdi         ## 8-byte Reload
	movq	%rax, %rsi
	callq	__ZNSt3__114basic_iostreamIcNS_11char_traitsIcEEEC2EPNS_15basic_streambufIcS2_EE
Ltmp422:
	jmp	LBB44_1
LBB44_1:
	movq	__ZTVNSt3__118basic_stringstreamIcNS_11char_traitsIcEENS_9allocatorIcEEEE@GOTPCREL(%rip), %rax
	movq	%rax, %rcx
	addq	$24, %rcx
	movq	-40(%rbp), %rdx         ## 8-byte Reload
	movq	%rcx, (%rdx)
	movq	%rax, %rcx
	addq	$104, %rcx
	movq	%rcx, 128(%rdx)
	addq	$64, %rax
	movq	%rax, 16(%rdx)
	addq	$24, %rdx
	movl	-12(%rbp), %esi
Ltmp424:
	movq	%rdx, %rdi
	callq	__ZNSt3__115basic_stringbufIcNS_11char_traitsIcEENS_9allocatorIcEEEC1Ej
Ltmp425:
	jmp	LBB44_2
LBB44_2:
	addq	$48, %rsp
	popq	%rbp
	retq
LBB44_3:
Ltmp423:
                                        ## kill: def $edx killed $edx killed $rdx
	movq	%rax, -24(%rbp)
	movl	%edx, -28(%rbp)
	jmp	LBB44_5
LBB44_4:
Ltmp426:
	movq	__ZTTNSt3__118basic_stringstreamIcNS_11char_traitsIcEENS_9allocatorIcEEEE@GOTPCREL(%rip), %rcx
	addq	$8, %rcx
                                        ## kill: def $edx killed $edx killed $rdx
	movq	%rax, -24(%rbp)
	movl	%edx, -28(%rbp)
	movq	-40(%rbp), %rax         ## 8-byte Reload
	movq	%rax, %rdi
	movq	%rcx, %rsi
	callq	__ZNSt3__114basic_iostreamIcNS_11char_traitsIcEEED2Ev
LBB44_5:
	movq	-40(%rbp), %rax         ## 8-byte Reload
	addq	$128, %rax
	movq	%rax, %rdi
	callq	__ZNSt3__19basic_iosIcNS_11char_traitsIcEEED2Ev
## %bb.6:
	movq	-24(%rbp), %rdi
	callq	__Unwind_Resume
	ud2
Lfunc_end13:
	.cfi_endproc
	.section	__TEXT,__gcc_except_tab
	.p2align	2
GCC_except_table44:
Lexception13:
	.byte	255                     ## @LPStart Encoding = omit
	.byte	255                     ## @TType Encoding = omit
	.byte	1                       ## Call site Encoding = uleb128
	.uleb128 Lcst_end13-Lcst_begin13
Lcst_begin13:
	.uleb128 Lfunc_begin13-Lfunc_begin13 ## >> Call Site 1 <<
	.uleb128 Ltmp421-Lfunc_begin13  ##   Call between Lfunc_begin13 and Ltmp421
	.byte	0                       ##     has no landing pad
	.byte	0                       ##   On action: cleanup
	.uleb128 Ltmp421-Lfunc_begin13  ## >> Call Site 2 <<
	.uleb128 Ltmp422-Ltmp421        ##   Call between Ltmp421 and Ltmp422
	.uleb128 Ltmp423-Lfunc_begin13  ##     jumps to Ltmp423
	.byte	0                       ##   On action: cleanup
	.uleb128 Ltmp424-Lfunc_begin13  ## >> Call Site 3 <<
	.uleb128 Ltmp425-Ltmp424        ##   Call between Ltmp424 and Ltmp425
	.uleb128 Ltmp426-Lfunc_begin13  ##     jumps to Ltmp426
	.byte	0                       ##   On action: cleanup
	.uleb128 Ltmp425-Lfunc_begin13  ## >> Call Site 4 <<
	.uleb128 Lfunc_end13-Ltmp425    ##   Call between Ltmp425 and Lfunc_end13
	.byte	0                       ##     has no landing pad
	.byte	0                       ##   On action: cleanup
Lcst_end13:
	.p2align	2
                                        ## -- End function
	.section	__TEXT,__text,regular,pure_instructions
	.p2align	4, 0x90         ## -- Begin function _ZNKSt3__118basic_stringstreamIcNS_11char_traitsIcEENS_9allocatorIcEEE3strEv
__ZNKSt3__118basic_stringstreamIcNS_11char_traitsIcEENS_9allocatorIcEEE3strEv: ## @_ZNKSt3__118basic_stringstreamIcNS_11char_traitsIcEENS_9allocatorIcEEE3strEv
	.cfi_startproc
## %bb.0:
	pushq	%rbp
	.cfi_def_cfa_offset 16
	.cfi_offset %rbp, -16
	movq	%rsp, %rbp
	.cfi_def_cfa_register %rbp
	subq	$16, %rsp
	movq	%rdi, %rax
	movq	%rsi, -8(%rbp)
	movq	-8(%rbp), %rcx
	addq	$24, %rcx
	movq	%rcx, %rsi
	movq	%rax, -16(%rbp)         ## 8-byte Spill
	callq	__ZNKSt3__115basic_stringbufIcNS_11char_traitsIcEENS_9allocatorIcEEE3strEv
	movq	-16(%rbp), %rax         ## 8-byte Reload
	addq	$16, %rsp
	popq	%rbp
	retq
	.cfi_endproc
                                        ## -- End function
	.p2align	4, 0x90         ## -- Begin function _ZNSt3__14__fs10filesystemlsIcNS_11char_traitsIcEEEENS_9enable_ifIXaasr7is_sameIT_cEE5valuesr7is_sameIT0_S4_EE5valueERNS_13basic_ostreamIS6_S7_EEE4typeESA_RKNS1_4pathE
__ZNSt3__14__fs10filesystemlsIcNS_11char_traitsIcEEEENS_9enable_ifIXaasr7is_sameIT_cEE5valuesr7is_sameIT0_S4_EE5valueERNS_13basic_ostreamIS6_S7_EEE4typeESA_RKNS1_4pathE: ## @_ZNSt3__14__fs10filesystemlsIcNS_11char_traitsIcEEEENS_9enable_ifIXaasr7is_sameIT_cEE5valuesr7is_sameIT0_S4_EE5valueERNS_13basic_ostreamIS6_S7_EEE4typeESA_RKNS1_4pathE
	.cfi_startproc
## %bb.0:
	pushq	%rbp
	.cfi_def_cfa_offset 16
	.cfi_offset %rbp, -16
	movq	%rsp, %rbp
	.cfi_def_cfa_register %rbp
	subq	$64, %rsp
	movq	%rdi, -8(%rbp)
	movq	%rsi, -16(%rbp)
	movq	-8(%rbp), %rdi
	movq	-16(%rbp), %rax
	movq	%rdi, -48(%rbp)         ## 8-byte Spill
	movq	%rax, %rdi
	callq	__ZNKSt3__14__fs10filesystem4path6nativeEv
	leaq	-40(%rbp), %rdi
	movq	%rax, %rsi
	movl	$34, %edx
	movl	$92, %ecx
	callq	__ZNSt3__1L8__quotedIcNS_11char_traitsIcEENS_9allocatorIcEEEENS_21__quoted_output_proxyIT_NS_12basic_stringIS6_T0_T1_E14const_iteratorENS1_IS6_EEEERKSA_S6_S6_
	movq	-48(%rbp), %rdi         ## 8-byte Reload
	leaq	-40(%rbp), %rsi
	callq	__ZNSt3__1lsIcNS_11char_traitsIcEENS_11__wrap_iterIPKcEEEERNS_13basic_ostreamIT_T0_EESB_RKNS_21__quoted_output_proxyIS8_T1_S9_EE
	movq	-8(%rbp), %rsi
	movq	%rax, -56(%rbp)         ## 8-byte Spill
	movq	%rsi, %rax
	addq	$64, %rsp
	popq	%rbp
	retq
	.cfi_endproc
                                        ## -- End function
	.p2align	4, 0x90         ## -- Begin function _ZNSt3__14__fs10filesystemL12current_pathEv
__ZNSt3__14__fs10filesystemL12current_pathEv: ## @_ZNSt3__14__fs10filesystemL12current_pathEv
	.cfi_startproc
## %bb.0:
	pushq	%rbp
	.cfi_def_cfa_offset 16
	.cfi_offset %rbp, -16
	movq	%rsp, %rbp
	.cfi_def_cfa_register %rbp
	subq	$16, %rsp
	movq	%rdi, %rax
	xorl	%ecx, %ecx
	movl	%ecx, %esi
	movq	%rax, -8(%rbp)          ## 8-byte Spill
	callq	__ZNSt3__14__fs10filesystem14__current_pathEPNS_10error_codeE
	movq	-8(%rbp), %rax          ## 8-byte Reload
	addq	$16, %rsp
	popq	%rbp
	retq
	.cfi_endproc
                                        ## -- End function
	.p2align	4, 0x90         ## -- Begin function _ZNSt3__14__fs10filesystem4pathD1Ev
__ZNSt3__14__fs10filesystem4pathD1Ev:   ## @_ZNSt3__14__fs10filesystem4pathD1Ev
	.cfi_startproc
## %bb.0:
	pushq	%rbp
	.cfi_def_cfa_offset 16
	.cfi_offset %rbp, -16
	movq	%rsp, %rbp
	.cfi_def_cfa_register %rbp
	subq	$16, %rsp
	movq	%rdi, -8(%rbp)
	movq	-8(%rbp), %rdi
	callq	__ZNSt3__14__fs10filesystem4pathD2Ev
	addq	$16, %rsp
	popq	%rbp
	retq
	.cfi_endproc
                                        ## -- End function
	.globl	__ZNSt3__118basic_stringstreamIcNS_11char_traitsIcEENS_9allocatorIcEEED1Ev ## -- Begin function _ZNSt3__118basic_stringstreamIcNS_11char_traitsIcEENS_9allocatorIcEEED1Ev
	.weak_def_can_be_hidden	__ZNSt3__118basic_stringstreamIcNS_11char_traitsIcEENS_9allocatorIcEEED1Ev
	.p2align	4, 0x90
__ZNSt3__118basic_stringstreamIcNS_11char_traitsIcEENS_9allocatorIcEEED1Ev: ## @_ZNSt3__118basic_stringstreamIcNS_11char_traitsIcEENS_9allocatorIcEEED1Ev
	.cfi_startproc
## %bb.0:
	pushq	%rbp
	.cfi_def_cfa_offset 16
	.cfi_offset %rbp, -16
	movq	%rsp, %rbp
	.cfi_def_cfa_register %rbp
	subq	$16, %rsp
	movq	__ZTTNSt3__118basic_stringstreamIcNS_11char_traitsIcEENS_9allocatorIcEEEE@GOTPCREL(%rip), %rsi
	movq	%rdi, -8(%rbp)
	movq	-8(%rbp), %rax
	movq	%rax, %rdi
	movq	%rax, -16(%rbp)         ## 8-byte Spill
	callq	__ZNSt3__118basic_stringstreamIcNS_11char_traitsIcEENS_9allocatorIcEEED2Ev
	movq	-16(%rbp), %rax         ## 8-byte Reload
	addq	$128, %rax
	movq	%rax, %rdi
	callq	__ZNSt3__19basic_iosIcNS_11char_traitsIcEEED2Ev
	addq	$16, %rsp
	popq	%rbp
	retq
	.cfi_endproc
                                        ## -- End function
	.globl	__Z13CopyRecursivePKcS0_ ## -- Begin function _Z13CopyRecursivePKcS0_
	.p2align	4, 0x90
__Z13CopyRecursivePKcS0_:               ## @_Z13CopyRecursivePKcS0_
Lfunc_begin14:
	.cfi_startproc
	.cfi_personality 155, ___gxx_personality_v0
	.cfi_lsda 16, Lexception14
## %bb.0:
	pushq	%rbp
	.cfi_def_cfa_offset 16
	.cfi_offset %rbp, -16
	movq	%rsp, %rbp
	.cfi_def_cfa_register %rbp
	subq	$96, %rsp
	movq	%rdi, -8(%rbp)
	movq	%rsi, -16(%rbp)
Ltmp427:
	leaq	-40(%rbp), %rdi
	leaq	-8(%rbp), %rsi
	xorl	%edx, %edx
	callq	__ZNSt3__14__fs10filesystem4pathC1IPKcvEERKT_NS2_6formatE
Ltmp428:
	jmp	LBB50_1
LBB50_1:
Ltmp430:
	leaq	-80(%rbp), %rdi
	leaq	-16(%rbp), %rsi
	xorl	%edx, %edx
	callq	__ZNSt3__14__fs10filesystem4pathC1IPKcvEERKT_NS2_6formatE
Ltmp431:
	jmp	LBB50_2
LBB50_2:
Ltmp433:
	movl	$2, %edi
	movl	$8, %esi
	callq	__ZNSt3__14__fs10filesystemorENS1_12copy_optionsES2_
Ltmp434:
	movw	%ax, -90(%rbp)          ## 2-byte Spill
	jmp	LBB50_3
LBB50_3:
Ltmp435:
	movw	-90(%rbp), %ax          ## 2-byte Reload
	movzwl	%ax, %edx
	leaq	-40(%rbp), %rdi
	leaq	-80(%rbp), %rsi
	callq	__ZNSt3__14__fs10filesystemL4copyERKNS1_4pathES4_NS1_12copy_optionsE
Ltmp436:
	jmp	LBB50_4
LBB50_4:
	leaq	-80(%rbp), %rdi
	callq	__ZNSt3__14__fs10filesystem4pathD1Ev
	leaq	-40(%rbp), %rdi
	callq	__ZNSt3__14__fs10filesystem4pathD1Ev
	jmp	LBB50_11
LBB50_5:
Ltmp429:
                                        ## kill: def $edx killed $edx killed $rdx
	movq	%rax, -48(%rbp)
	movl	%edx, -52(%rbp)
	jmp	LBB50_9
LBB50_6:
Ltmp432:
                                        ## kill: def $edx killed $edx killed $rdx
	movq	%rax, -48(%rbp)
	movl	%edx, -52(%rbp)
	jmp	LBB50_8
LBB50_7:
Ltmp437:
                                        ## kill: def $edx killed $edx killed $rdx
	movq	%rax, -48(%rbp)
	movl	%edx, -52(%rbp)
	leaq	-80(%rbp), %rdi
	callq	__ZNSt3__14__fs10filesystem4pathD1Ev
LBB50_8:
	leaq	-40(%rbp), %rdi
	callq	__ZNSt3__14__fs10filesystem4pathD1Ev
LBB50_9:
	movl	-52(%rbp), %eax
	movl	$1, %ecx
	cmpl	%ecx, %eax
	jne	LBB50_12
## %bb.10:
	movq	-48(%rbp), %rdi
	callq	___cxa_begin_catch
	movq	%rax, -88(%rbp)
	callq	___cxa_end_catch
LBB50_11:
	addq	$96, %rsp
	popq	%rbp
	retq
LBB50_12:
	movq	-48(%rbp), %rdi
	callq	__Unwind_Resume
	ud2
Lfunc_end14:
	.cfi_endproc
	.section	__TEXT,__gcc_except_tab
	.p2align	2
GCC_except_table50:
Lexception14:
	.byte	255                     ## @LPStart Encoding = omit
	.byte	155                     ## @TType Encoding = indirect pcrel sdata4
	.uleb128 Lttbase1-Lttbaseref1
Lttbaseref1:
	.byte	1                       ## Call site Encoding = uleb128
	.uleb128 Lcst_end14-Lcst_begin14
Lcst_begin14:
	.uleb128 Ltmp427-Lfunc_begin14  ## >> Call Site 1 <<
	.uleb128 Ltmp428-Ltmp427        ##   Call between Ltmp427 and Ltmp428
	.uleb128 Ltmp429-Lfunc_begin14  ##     jumps to Ltmp429
	.byte	5                       ##   On action: 3
	.uleb128 Ltmp430-Lfunc_begin14  ## >> Call Site 2 <<
	.uleb128 Ltmp431-Ltmp430        ##   Call between Ltmp430 and Ltmp431
	.uleb128 Ltmp432-Lfunc_begin14  ##     jumps to Ltmp432
	.byte	3                       ##   On action: 2
	.uleb128 Ltmp433-Lfunc_begin14  ## >> Call Site 3 <<
	.uleb128 Ltmp436-Ltmp433        ##   Call between Ltmp433 and Ltmp436
	.uleb128 Ltmp437-Lfunc_begin14  ##     jumps to Ltmp437
	.byte	3                       ##   On action: 2
	.uleb128 Ltmp436-Lfunc_begin14  ## >> Call Site 4 <<
	.uleb128 Lfunc_end14-Ltmp436    ##   Call between Ltmp436 and Lfunc_end14
	.byte	0                       ##     has no landing pad
	.byte	0                       ##   On action: cleanup
Lcst_end14:
	.byte	0                       ## >> Action Record 1 <<
                                        ##   Cleanup
	.byte	0                       ##   No further actions
	.byte	1                       ## >> Action Record 2 <<
                                        ##   Catch TypeInfo 1
	.byte	125                     ##   Continue to action 1
	.byte	1                       ## >> Action Record 3 <<
                                        ##   Catch TypeInfo 1
	.byte	0                       ##   No further actions
	.p2align	2
                                        ## >> Catch TypeInfos <<
	.long	__ZTISt9exception@GOTPCREL+4 ## TypeInfo 1
Lttbase1:
	.p2align	2
                                        ## -- End function
	.section	__TEXT,__text,regular,pure_instructions
	.p2align	4, 0x90         ## -- Begin function _ZNSt3__14__fs10filesystemL4copyERKNS1_4pathES4_NS1_12copy_optionsE
__ZNSt3__14__fs10filesystemL4copyERKNS1_4pathES4_NS1_12copy_optionsE: ## @_ZNSt3__14__fs10filesystemL4copyERKNS1_4pathES4_NS1_12copy_optionsE
	.cfi_startproc
## %bb.0:
	pushq	%rbp
	.cfi_def_cfa_offset 16
	.cfi_offset %rbp, -16
	movq	%rsp, %rbp
	.cfi_def_cfa_register %rbp
	subq	$32, %rsp
                                        ## kill: def $dx killed $dx killed $edx
	xorl	%eax, %eax
	movl	%eax, %ecx
	movq	%rdi, -8(%rbp)
	movq	%rsi, -16(%rbp)
	movw	%dx, -18(%rbp)
	movq	-8(%rbp), %rdi
	movq	-16(%rbp), %rsi
	movzwl	-18(%rbp), %edx
	callq	__ZNSt3__14__fs10filesystem6__copyERKNS1_4pathES4_NS1_12copy_optionsEPNS_10error_codeE
	addq	$32, %rsp
	popq	%rbp
	retq
	.cfi_endproc
                                        ## -- End function
	.globl	__ZNSt3__14__fs10filesystem4pathC1IPKcvEERKT_NS2_6formatE ## -- Begin function _ZNSt3__14__fs10filesystem4pathC1IPKcvEERKT_NS2_6formatE
	.weak_def_can_be_hidden	__ZNSt3__14__fs10filesystem4pathC1IPKcvEERKT_NS2_6formatE
	.p2align	4, 0x90
__ZNSt3__14__fs10filesystem4pathC1IPKcvEERKT_NS2_6formatE: ## @_ZNSt3__14__fs10filesystem4pathC1IPKcvEERKT_NS2_6formatE
	.cfi_startproc
## %bb.0:
	pushq	%rbp
	.cfi_def_cfa_offset 16
	.cfi_offset %rbp, -16
	movq	%rsp, %rbp
	.cfi_def_cfa_register %rbp
	subq	$32, %rsp
                                        ## kill: def $dl killed $dl killed $edx
	movq	%rdi, -8(%rbp)
	movq	%rsi, -16(%rbp)
	movb	%dl, -17(%rbp)
	movq	-8(%rbp), %rdi
	movq	-16(%rbp), %rsi
	movzbl	-17(%rbp), %edx
	callq	__ZNSt3__14__fs10filesystem4pathC2IPKcvEERKT_NS2_6formatE
	addq	$32, %rsp
	popq	%rbp
	retq
	.cfi_endproc
                                        ## -- End function
	.p2align	4, 0x90         ## -- Begin function _ZNSt3__14__fs10filesystemorENS1_12copy_optionsES2_
__ZNSt3__14__fs10filesystemorENS1_12copy_optionsES2_: ## @_ZNSt3__14__fs10filesystemorENS1_12copy_optionsES2_
	.cfi_startproc
## %bb.0:
	pushq	%rbp
	.cfi_def_cfa_offset 16
	.cfi_offset %rbp, -16
	movq	%rsp, %rbp
	.cfi_def_cfa_register %rbp
                                        ## kill: def $si killed $si killed $esi
                                        ## kill: def $di killed $di killed $edi
	movw	%di, -2(%rbp)
	movw	%si, -4(%rbp)
	movzwl	-2(%rbp), %eax
	movzwl	-4(%rbp), %ecx
	orl	%ecx, %eax
                                        ## kill: def $ax killed $ax killed $eax
	movzwl	%ax, %eax
	popq	%rbp
	retq
	.cfi_endproc
                                        ## -- End function
	.globl	__Z4linkP4MSTSS0_S0_NSt3__112basic_stringIcNS1_11char_traitsIcEENS1_9allocatorIcEEEEiS7_ ## -- Begin function _Z4linkP4MSTSS0_S0_NSt3__112basic_stringIcNS1_11char_traitsIcEENS1_9allocatorIcEEEEiS7_
	.p2align	4, 0x90
__Z4linkP4MSTSS0_S0_NSt3__112basic_stringIcNS1_11char_traitsIcEENS1_9allocatorIcEEEEiS7_: ## @_Z4linkP4MSTSS0_S0_NSt3__112basic_stringIcNS1_11char_traitsIcEENS1_9allocatorIcEEEEiS7_
Lfunc_begin15:
	.cfi_startproc
	.cfi_personality 155, ___gxx_personality_v0
	.cfi_lsda 16, Lexception15
## %bb.0:
	pushq	%rbp
	.cfi_def_cfa_offset 16
	.cfi_offset %rbp, -16
	movq	%rsp, %rbp
	.cfi_def_cfa_register %rbp
	subq	$1520, %rsp             ## imm = 0x5F0
	movq	%rdi, -16(%rbp)
	movq	%rsi, -24(%rbp)
	movq	%rdx, -32(%rbp)
	movl	%r8d, -36(%rbp)
	cmpl	$2, -36(%rbp)
	movq	%rcx, -1208(%rbp)       ## 8-byte Spill
	movq	%r9, -1216(%rbp)        ## 8-byte Spill
	je	LBB54_169
## %bb.1:
	leaq	-64(%rbp), %rax
	movq	%rax, %rdi
	movq	%rax, -1224(%rbp)       ## 8-byte Spill
	callq	__ZNSt3__16vectorINS_12basic_stringIcNS_11char_traitsIcEENS_9allocatorIcEEEENS4_IS6_EEEC1Ev
	leaq	-88(%rbp), %rdi
	callq	__ZNSt3__112basic_stringIcNS_11char_traitsIcEENS_9allocatorIcEEEC1Ev
	movq	-32(%rbp), %rax
	addq	$48, %rax
Ltmp438:
	movl	$32, %edx
	movq	%rax, %rdi
	movq	-1224(%rbp), %rsi       ## 8-byte Reload
	callq	__Z5splitRKNSt3__112basic_stringIcNS_11char_traitsIcEENS_9allocatorIcEEEERNS_6vectorIS5_NS3_IS5_EEEEc
Ltmp439:
	jmp	LBB54_2
LBB54_2:
	leaq	-128(%rbp), %rdi
	callq	__ZNSt3__112basic_stringIcNS_11char_traitsIcEENS_9allocatorIcEEEC1Ev
	movl	$0, -132(%rbp)
LBB54_3:                                ## =>This Loop Header: Depth=1
                                        ##     Child Loop BB54_75 Depth 2
	movslq	-132(%rbp), %rax
	leaq	-64(%rbp), %rdi
	movq	%rax, -1232(%rbp)       ## 8-byte Spill
	callq	__ZNKSt3__16vectorINS_12basic_stringIcNS_11char_traitsIcEENS_9allocatorIcEEEENS4_IS6_EEE4sizeEv
	movq	-1232(%rbp), %rcx       ## 8-byte Reload
	cmpq	%rax, %rcx
	jae	LBB54_113
## %bb.4:                               ##   in Loop: Header=BB54_3 Depth=1
	movslq	-132(%rbp), %rsi
	leaq	-64(%rbp), %rdi
	callq	__ZNSt3__16vectorINS_12basic_stringIcNS_11char_traitsIcEENS_9allocatorIcEEEENS4_IS6_EEEixEm
	movq	%rax, %rdi
	callq	__ZNKSt3__112basic_stringIcNS_11char_traitsIcEENS_9allocatorIcEEE5c_strEv
Ltmp510:
	leaq	L_.str.3(%rip), %rsi
	movq	%rax, %rdi
	callq	_strcmp
Ltmp511:
	movl	%eax, -1236(%rbp)       ## 4-byte Spill
	jmp	LBB54_5
LBB54_5:                                ##   in Loop: Header=BB54_3 Depth=1
	movl	-1236(%rbp), %eax       ## 4-byte Reload
	cmpl	$0, %eax
	je	LBB54_111
## %bb.6:                               ##   in Loop: Header=BB54_3 Depth=1
	leaq	-160(%rbp), %rdi
	callq	__ZNSt3__112basic_stringIcNS_11char_traitsIcEENS_9allocatorIcEEEC1Ev
	movslq	-132(%rbp), %rsi
	leaq	-64(%rbp), %rdi
	callq	__ZNSt3__16vectorINS_12basic_stringIcNS_11char_traitsIcEENS_9allocatorIcEEEENS4_IS6_EEEixEm
Ltmp513:
	leaq	-208(%rbp), %rdi
	movq	%rax, %rsi
	callq	__ZNSt3__112basic_stringIcNS_11char_traitsIcEENS_9allocatorIcEEEC1ERKS5_
Ltmp514:
	jmp	LBB54_7
LBB54_7:                                ##   in Loop: Header=BB54_3 Depth=1
Ltmp515:
	leaq	-184(%rbp), %rdi
	leaq	-208(%rbp), %rsi
	callq	__Z2ASNSt3__112basic_stringIcNS_11char_traitsIcEENS_9allocatorIcEEEE
Ltmp516:
	jmp	LBB54_8
LBB54_8:                                ##   in Loop: Header=BB54_3 Depth=1
	leaq	-184(%rbp), %rdi
	callq	__ZNKSt3__112basic_stringIcNS_11char_traitsIcEENS_9allocatorIcEEE5c_strEv
Ltmp518:
	leaq	L_.str.3(%rip), %rsi
	movq	%rax, %rdi
	callq	_strcmp
Ltmp519:
	movl	%eax, -1240(%rbp)       ## 4-byte Spill
	jmp	LBB54_9
LBB54_9:                                ##   in Loop: Header=BB54_3 Depth=1
	leaq	-184(%rbp), %rdi
	callq	__ZNSt3__112basic_stringIcNS_11char_traitsIcEENS_9allocatorIcEEED1Ev
	leaq	-208(%rbp), %rdi
	callq	__ZNSt3__112basic_stringIcNS_11char_traitsIcEENS_9allocatorIcEEED1Ev
	movl	-1240(%rbp), %eax       ## 4-byte Reload
	cmpl	$0, %eax
	jne	LBB54_18
## %bb.10:                              ##   in Loop: Header=BB54_3 Depth=1
Ltmp526:
	leaq	L_.str.3(%rip), %rsi
	leaq	-160(%rbp), %rdi
	callq	__ZNSt3__112basic_stringIcNS_11char_traitsIcEENS_9allocatorIcEEEaSEPKc
Ltmp527:
	jmp	LBB54_11
LBB54_11:                               ##   in Loop: Header=BB54_3 Depth=1
	jmp	LBB54_22
LBB54_12:
Ltmp440:
                                        ## kill: def $edx killed $edx killed $rdx
	movq	%rax, -96(%rbp)
	movl	%edx, -100(%rbp)
	jmp	LBB54_168
LBB54_13:
Ltmp512:
                                        ## kill: def $edx killed $edx killed $rdx
	movq	%rax, -96(%rbp)
	movl	%edx, -100(%rbp)
	jmp	LBB54_167
LBB54_14:
Ltmp530:
                                        ## kill: def $edx killed $edx killed $rdx
	movq	%rax, -96(%rbp)
	movl	%edx, -100(%rbp)
	jmp	LBB54_110
LBB54_15:
Ltmp517:
                                        ## kill: def $edx killed $edx killed $rdx
	movq	%rax, -96(%rbp)
	movl	%edx, -100(%rbp)
	jmp	LBB54_17
LBB54_16:
Ltmp520:
                                        ## kill: def $edx killed $edx killed $rdx
	movq	%rax, -96(%rbp)
	movl	%edx, -100(%rbp)
	leaq	-184(%rbp), %rdi
	callq	__ZNSt3__112basic_stringIcNS_11char_traitsIcEENS_9allocatorIcEEED1Ev
LBB54_17:
	leaq	-208(%rbp), %rdi
	callq	__ZNSt3__112basic_stringIcNS_11char_traitsIcEENS_9allocatorIcEEED1Ev
	jmp	LBB54_110
LBB54_18:                               ##   in Loop: Header=BB54_3 Depth=1
	movslq	-132(%rbp), %rsi
	leaq	-64(%rbp), %rdi
	callq	__ZNSt3__16vectorINS_12basic_stringIcNS_11char_traitsIcEENS_9allocatorIcEEEENS4_IS6_EEEixEm
Ltmp521:
	leaq	-256(%rbp), %rdi
	movq	%rax, %rsi
	callq	__ZNSt3__112basic_stringIcNS_11char_traitsIcEENS_9allocatorIcEEEC1ERKS5_
Ltmp522:
	jmp	LBB54_19
LBB54_19:                               ##   in Loop: Header=BB54_3 Depth=1
Ltmp523:
	leaq	-232(%rbp), %rdi
	leaq	-256(%rbp), %rsi
	callq	__Z2ASNSt3__112basic_stringIcNS_11char_traitsIcEENS_9allocatorIcEEEE
Ltmp524:
	jmp	LBB54_20
LBB54_20:                               ##   in Loop: Header=BB54_3 Depth=1
	leaq	-160(%rbp), %rdi
	leaq	-232(%rbp), %rsi
	callq	__ZNSt3__112basic_stringIcNS_11char_traitsIcEENS_9allocatorIcEEEaSEOS5_
	leaq	-232(%rbp), %rdi
	movq	%rax, -1248(%rbp)       ## 8-byte Spill
	callq	__ZNSt3__112basic_stringIcNS_11char_traitsIcEENS_9allocatorIcEEED1Ev
	leaq	-256(%rbp), %rdi
	callq	__ZNSt3__112basic_stringIcNS_11char_traitsIcEENS_9allocatorIcEEED1Ev
	jmp	LBB54_22
LBB54_21:
Ltmp525:
                                        ## kill: def $edx killed $edx killed $rdx
	movq	%rax, -96(%rbp)
	movl	%edx, -100(%rbp)
	leaq	-256(%rbp), %rdi
	callq	__ZNSt3__112basic_stringIcNS_11char_traitsIcEENS_9allocatorIcEEED1Ev
	jmp	LBB54_110
LBB54_22:                               ##   in Loop: Header=BB54_3 Depth=1
	movslq	-132(%rbp), %rsi
	leaq	-64(%rbp), %rdi
	callq	__ZNSt3__16vectorINS_12basic_stringIcNS_11char_traitsIcEENS_9allocatorIcEEEENS4_IS6_EEEixEm
Ltmp528:
	leaq	-304(%rbp), %rdi
	movq	%rax, %rsi
	callq	__ZNSt3__112basic_stringIcNS_11char_traitsIcEENS_9allocatorIcEEEC1ERKS5_
Ltmp529:
	jmp	LBB54_23
LBB54_23:                               ##   in Loop: Header=BB54_3 Depth=1
Ltmp531:
	leaq	L_.str.38(%rip), %rsi
	leaq	-328(%rbp), %rdi
	callq	__ZNSt3__112basic_stringIcNS_11char_traitsIcEENS_9allocatorIcEEEC1IDnEEPKc
Ltmp532:
	jmp	LBB54_24
LBB54_24:                               ##   in Loop: Header=BB54_3 Depth=1
Ltmp534:
	leaq	-280(%rbp), %rdi
	leaq	-304(%rbp), %rsi
	leaq	-328(%rbp), %rdx
	callq	__Z8Get_DataNSt3__112basic_stringIcNS_11char_traitsIcEENS_9allocatorIcEEEES5_
Ltmp535:
	jmp	LBB54_25
LBB54_25:                               ##   in Loop: Header=BB54_3 Depth=1
	leaq	-328(%rbp), %rdi
	callq	__ZNSt3__112basic_stringIcNS_11char_traitsIcEENS_9allocatorIcEEED1Ev
	leaq	-304(%rbp), %rdi
	callq	__ZNSt3__112basic_stringIcNS_11char_traitsIcEENS_9allocatorIcEEED1Ev
	movslq	-132(%rbp), %rsi
	leaq	-64(%rbp), %rdi
	callq	__ZNSt3__16vectorINS_12basic_stringIcNS_11char_traitsIcEENS_9allocatorIcEEEENS4_IS6_EEEixEm
Ltmp537:
	leaq	-384(%rbp), %rdi
	movq	%rax, %rsi
	callq	__ZNSt3__112basic_stringIcNS_11char_traitsIcEENS_9allocatorIcEEEC1ERKS5_
Ltmp538:
	jmp	LBB54_26
LBB54_26:                               ##   in Loop: Header=BB54_3 Depth=1
Ltmp539:
	leaq	L_.str.39(%rip), %rsi
	leaq	-408(%rbp), %rdi
	callq	__ZNSt3__112basic_stringIcNS_11char_traitsIcEENS_9allocatorIcEEEC1IDnEEPKc
Ltmp540:
	jmp	LBB54_27
LBB54_27:                               ##   in Loop: Header=BB54_3 Depth=1
Ltmp542:
	leaq	-360(%rbp), %rdi
	leaq	-384(%rbp), %rsi
	leaq	-408(%rbp), %rdx
	callq	__Z8Get_DataNSt3__112basic_stringIcNS_11char_traitsIcEENS_9allocatorIcEEEES5_
Ltmp543:
	jmp	LBB54_28
LBB54_28:                               ##   in Loop: Header=BB54_3 Depth=1
Ltmp545:
	xorl	%eax, %eax
	movl	%eax, %esi
	leaq	-360(%rbp), %rdi
	movl	$10, %edx
	callq	__ZNSt3__14stoiERKNS_12basic_stringIcNS_11char_traitsIcEENS_9allocatorIcEEEEPmi
Ltmp546:
	movl	%eax, -1252(%rbp)       ## 4-byte Spill
	jmp	LBB54_29
LBB54_29:                               ##   in Loop: Header=BB54_3 Depth=1
	movl	-1252(%rbp), %eax       ## 4-byte Reload
	movl	%eax, -332(%rbp)
	leaq	-360(%rbp), %rdi
	callq	__ZNSt3__112basic_stringIcNS_11char_traitsIcEENS_9allocatorIcEEED1Ev
	leaq	-408(%rbp), %rdi
	callq	__ZNSt3__112basic_stringIcNS_11char_traitsIcEENS_9allocatorIcEEED1Ev
	leaq	-384(%rbp), %rdi
	callq	__ZNSt3__112basic_stringIcNS_11char_traitsIcEENS_9allocatorIcEEED1Ev
Ltmp548:
	leaq	L_.str.4(%rip), %rdx
	leaq	-456(%rbp), %rdi
	movq	-1216(%rbp), %rsi       ## 8-byte Reload
	callq	__ZNSt3__1plIcNS_11char_traitsIcEENS_9allocatorIcEEEENS_12basic_stringIT_T0_T1_EERKS9_PKS6_
Ltmp549:
	jmp	LBB54_30
LBB54_30:                               ##   in Loop: Header=BB54_3 Depth=1
	movslq	-132(%rbp), %rsi
	leaq	-64(%rbp), %rdi
	callq	__ZNSt3__16vectorINS_12basic_stringIcNS_11char_traitsIcEENS_9allocatorIcEEEENS4_IS6_EEEixEm
Ltmp551:
	leaq	-432(%rbp), %rdi
	leaq	-456(%rbp), %rsi
	movq	%rax, %rdx
	callq	__ZNSt3__1plIcNS_11char_traitsIcEENS_9allocatorIcEEEENS_12basic_stringIT_T0_T1_EEOS9_RKS9_
Ltmp552:
	jmp	LBB54_31
LBB54_31:                               ##   in Loop: Header=BB54_3 Depth=1
	leaq	-456(%rbp), %rdi
	callq	__ZNSt3__112basic_stringIcNS_11char_traitsIcEENS_9allocatorIcEEED1Ev
	cmpl	$1, _forcebuild(%rip)
	jne	LBB54_45
## %bb.32:                              ##   in Loop: Header=BB54_3 Depth=1
Ltmp554:
	leaq	L_.str.40(%rip), %rsi
	leaq	-432(%rbp), %rdi
	callq	__ZNSt3__112basic_stringIcNS_11char_traitsIcEENS_9allocatorIcEEEpLEPKc
Ltmp555:
	jmp	LBB54_33
LBB54_33:                               ##   in Loop: Header=BB54_3 Depth=1
	jmp	LBB54_45
LBB54_34:
Ltmp533:
                                        ## kill: def $edx killed $edx killed $rdx
	movq	%rax, -96(%rbp)
	movl	%edx, -100(%rbp)
	jmp	LBB54_36
LBB54_35:
Ltmp536:
                                        ## kill: def $edx killed $edx killed $rdx
	movq	%rax, -96(%rbp)
	movl	%edx, -100(%rbp)
	leaq	-328(%rbp), %rdi
	callq	__ZNSt3__112basic_stringIcNS_11char_traitsIcEENS_9allocatorIcEEED1Ev
LBB54_36:
	leaq	-304(%rbp), %rdi
	callq	__ZNSt3__112basic_stringIcNS_11char_traitsIcEENS_9allocatorIcEEED1Ev
	jmp	LBB54_110
LBB54_37:                               ##   in Loop: Header=BB54_3 Depth=1
Ltmp550:
                                        ## kill: def $edx killed $edx killed $rdx
	movq	%rax, -96(%rbp)
	movl	%edx, -100(%rbp)
	jmp	LBB54_104
LBB54_38:                               ##   in Loop: Header=BB54_3 Depth=1
Ltmp541:
                                        ## kill: def $edx killed $edx killed $rdx
	movq	%rax, -96(%rbp)
	movl	%edx, -100(%rbp)
	jmp	LBB54_42
LBB54_39:                               ##   in Loop: Header=BB54_3 Depth=1
Ltmp544:
                                        ## kill: def $edx killed $edx killed $rdx
	movq	%rax, -96(%rbp)
	movl	%edx, -100(%rbp)
	jmp	LBB54_41
LBB54_40:                               ##   in Loop: Header=BB54_3 Depth=1
Ltmp547:
                                        ## kill: def $edx killed $edx killed $rdx
	movq	%rax, -96(%rbp)
	movl	%edx, -100(%rbp)
	leaq	-360(%rbp), %rdi
	callq	__ZNSt3__112basic_stringIcNS_11char_traitsIcEENS_9allocatorIcEEED1Ev
LBB54_41:                               ##   in Loop: Header=BB54_3 Depth=1
	leaq	-408(%rbp), %rdi
	callq	__ZNSt3__112basic_stringIcNS_11char_traitsIcEENS_9allocatorIcEEED1Ev
LBB54_42:                               ##   in Loop: Header=BB54_3 Depth=1
	leaq	-384(%rbp), %rdi
	callq	__ZNSt3__112basic_stringIcNS_11char_traitsIcEENS_9allocatorIcEEED1Ev
	jmp	LBB54_104
LBB54_43:                               ##   in Loop: Header=BB54_3 Depth=1
Ltmp553:
                                        ## kill: def $edx killed $edx killed $rdx
	movq	%rax, -96(%rbp)
	movl	%edx, -100(%rbp)
	leaq	-456(%rbp), %rdi
	callq	__ZNSt3__112basic_stringIcNS_11char_traitsIcEENS_9allocatorIcEEED1Ev
	jmp	LBB54_104
LBB54_44:                               ##   in Loop: Header=BB54_3 Depth=1
Ltmp560:
                                        ## kill: def $edx killed $edx killed $rdx
	movq	%rax, -96(%rbp)
	movl	%edx, -100(%rbp)
	jmp	LBB54_103
LBB54_45:                               ##   in Loop: Header=BB54_3 Depth=1
Ltmp556:
	leaq	L_.str.41(%rip), %rsi
	leaq	-432(%rbp), %rdi
	callq	__ZNSt3__112basic_stringIcNS_11char_traitsIcEENS_9allocatorIcEEEpLEPKc
Ltmp557:
	jmp	LBB54_46
LBB54_46:                               ##   in Loop: Header=BB54_3 Depth=1
	movslq	-132(%rbp), %rsi
	leaq	-64(%rbp), %rdi
	callq	__ZNSt3__16vectorINS_12basic_stringIcNS_11char_traitsIcEENS_9allocatorIcEEEENS4_IS6_EEEixEm
Ltmp558:
	leaq	-528(%rbp), %rdi
	movq	%rax, %rsi
	callq	__ZNSt3__112basic_stringIcNS_11char_traitsIcEENS_9allocatorIcEEEC1ERKS5_
Ltmp559:
	jmp	LBB54_47
LBB54_47:                               ##   in Loop: Header=BB54_3 Depth=1
Ltmp561:
	leaq	-504(%rbp), %rdi
	leaq	-528(%rbp), %rsi
	callq	__Z2ASNSt3__112basic_stringIcNS_11char_traitsIcEENS_9allocatorIcEEEE
Ltmp562:
	jmp	LBB54_48
LBB54_48:                               ##   in Loop: Header=BB54_3 Depth=1
Ltmp564:
	leaq	-480(%rbp), %rdi
	leaq	-504(%rbp), %rsi
	leaq	-280(%rbp), %rdx
	callq	__ZNSt3__1plIcNS_11char_traitsIcEENS_9allocatorIcEEEENS_12basic_stringIT_T0_T1_EEOS9_RKS9_
Ltmp565:
	jmp	LBB54_49
LBB54_49:                               ##   in Loop: Header=BB54_3 Depth=1
	leaq	-504(%rbp), %rdi
	callq	__ZNSt3__112basic_stringIcNS_11char_traitsIcEENS_9allocatorIcEEED1Ev
	leaq	-528(%rbp), %rdi
	callq	__ZNSt3__112basic_stringIcNS_11char_traitsIcEENS_9allocatorIcEEED1Ev
Ltmp567:
	leaq	-552(%rbp), %rdi
	leaq	-280(%rbp), %rsi
	callq	__ZNSt3__112basic_stringIcNS_11char_traitsIcEENS_9allocatorIcEEEC1ERKS5_
Ltmp568:
	jmp	LBB54_50
LBB54_50:                               ##   in Loop: Header=BB54_3 Depth=1
	leaq	-576(%rbp), %rdi
	callq	__ZNSt3__16vectorINS_12basic_stringIcNS_11char_traitsIcEENS_9allocatorIcEEEENS4_IS6_EEEC1Ev
	movl	-332(%rbp), %eax
	testl	%eax, %eax
	movl	%eax, -1256(%rbp)       ## 4-byte Spill
	je	LBB54_55
	jmp	LBB54_173
LBB54_173:                              ##   in Loop: Header=BB54_3 Depth=1
	movl	-1256(%rbp), %eax       ## 4-byte Reload
	subl	$1, %eax
	je	LBB54_63
	jmp	LBB54_174
LBB54_174:                              ##   in Loop: Header=BB54_3 Depth=1
	movl	-1256(%rbp), %eax       ## 4-byte Reload
	subl	$2, %eax
	je	LBB54_69
	jmp	LBB54_99
LBB54_51:                               ##   in Loop: Header=BB54_3 Depth=1
Ltmp563:
                                        ## kill: def $edx killed $edx killed $rdx
	movq	%rax, -96(%rbp)
	movl	%edx, -100(%rbp)
	jmp	LBB54_53
LBB54_52:                               ##   in Loop: Header=BB54_3 Depth=1
Ltmp566:
                                        ## kill: def $edx killed $edx killed $rdx
	movq	%rax, -96(%rbp)
	movl	%edx, -100(%rbp)
	leaq	-504(%rbp), %rdi
	callq	__ZNSt3__112basic_stringIcNS_11char_traitsIcEENS_9allocatorIcEEED1Ev
LBB54_53:                               ##   in Loop: Header=BB54_3 Depth=1
	leaq	-528(%rbp), %rdi
	callq	__ZNSt3__112basic_stringIcNS_11char_traitsIcEENS_9allocatorIcEEED1Ev
	jmp	LBB54_103
LBB54_54:                               ##   in Loop: Header=BB54_3 Depth=1
Ltmp569:
                                        ## kill: def $edx killed $edx killed $rdx
	movq	%rax, -96(%rbp)
	movl	%edx, -100(%rbp)
	jmp	LBB54_102
LBB54_55:                               ##   in Loop: Header=BB54_3 Depth=1
Ltmp609:
	movq	__ZNSt3__14coutE@GOTPCREL(%rip), %rdi
	leaq	L_.str.42(%rip), %rsi
	callq	__ZNSt3__1lsINS_11char_traitsIcEEEERNS_13basic_ostreamIcT_EES6_PKc
Ltmp610:
	movq	%rax, -1264(%rbp)       ## 8-byte Spill
	jmp	LBB54_56
LBB54_56:                               ##   in Loop: Header=BB54_3 Depth=1
	movslq	-132(%rbp), %rsi
	leaq	-64(%rbp), %rdi
	callq	__ZNSt3__16vectorINS_12basic_stringIcNS_11char_traitsIcEENS_9allocatorIcEEEENS4_IS6_EEEixEm
Ltmp611:
	leaq	-600(%rbp), %rdi
	leaq	-160(%rbp), %rsi
	movq	%rax, %rdx
	callq	__ZNSt3__1plIcNS_11char_traitsIcEENS_9allocatorIcEEEENS_12basic_stringIT_T0_T1_EERKS9_SB_
Ltmp612:
	jmp	LBB54_57
LBB54_57:                               ##   in Loop: Header=BB54_3 Depth=1
Ltmp614:
	leaq	-600(%rbp), %rsi
	movq	-1264(%rbp), %rdi       ## 8-byte Reload
	callq	__ZNSt3__1lsIcNS_11char_traitsIcEENS_9allocatorIcEEEERNS_13basic_ostreamIT_T0_EES9_RKNS_12basic_stringIS6_S7_T1_EE
Ltmp615:
	movq	%rax, -1272(%rbp)       ## 8-byte Spill
	jmp	LBB54_58
LBB54_58:                               ##   in Loop: Header=BB54_3 Depth=1
Ltmp616:
	leaq	L_.str.43(%rip), %rsi
	movq	-1272(%rbp), %rdi       ## 8-byte Reload
	callq	__ZNSt3__1lsINS_11char_traitsIcEEEERNS_13basic_ostreamIcT_EES6_PKc
Ltmp617:
	movq	%rax, -1280(%rbp)       ## 8-byte Spill
	jmp	LBB54_59
LBB54_59:                               ##   in Loop: Header=BB54_3 Depth=1
Ltmp618:
	leaq	__ZNSt3__1L4endlIcNS_11char_traitsIcEEEERNS_13basic_ostreamIT_T0_EES7_(%rip), %rsi
	movq	-1280(%rbp), %rdi       ## 8-byte Reload
	callq	__ZNSt3__113basic_ostreamIcNS_11char_traitsIcEEElsEPFRS3_S4_E
Ltmp619:
	jmp	LBB54_60
LBB54_60:                               ##   in Loop: Header=BB54_3 Depth=1
	leaq	-600(%rbp), %rdi
	callq	__ZNSt3__112basic_stringIcNS_11char_traitsIcEENS_9allocatorIcEEED1Ev
	jmp	LBB54_100
LBB54_61:                               ##   in Loop: Header=BB54_3 Depth=1
Ltmp613:
                                        ## kill: def $edx killed $edx killed $rdx
	movq	%rax, -96(%rbp)
	movl	%edx, -100(%rbp)
	jmp	LBB54_101
LBB54_62:                               ##   in Loop: Header=BB54_3 Depth=1
Ltmp620:
                                        ## kill: def $edx killed $edx killed $rdx
	movq	%rax, -96(%rbp)
	movl	%edx, -100(%rbp)
	leaq	-600(%rbp), %rdi
	callq	__ZNSt3__112basic_stringIcNS_11char_traitsIcEENS_9allocatorIcEEED1Ev
	jmp	LBB54_101
LBB54_63:                               ##   in Loop: Header=BB54_3 Depth=1
	leaq	-432(%rbp), %rdi
	callq	__ZNKSt3__112basic_stringIcNS_11char_traitsIcEENS_9allocatorIcEEE5c_strEv
Ltmp600:
	movq	%rax, %rdi
	callq	_system
Ltmp601:
	jmp	LBB54_64
LBB54_64:                               ##   in Loop: Header=BB54_3 Depth=1
	leaq	-480(%rbp), %rdi
	callq	__ZNKSt3__112basic_stringIcNS_11char_traitsIcEENS_9allocatorIcEEE5c_strEv
	leaq	-552(%rbp), %rdi
	movq	%rax, -1288(%rbp)       ## 8-byte Spill
	callq	__ZNKSt3__112basic_stringIcNS_11char_traitsIcEENS_9allocatorIcEEE5c_strEv
Ltmp602:
	movq	-1288(%rbp), %rdi       ## 8-byte Reload
	movq	%rax, %rsi
	callq	__Z13CopyRecursivePKcS0_
Ltmp603:
	jmp	LBB54_65
LBB54_65:                               ##   in Loop: Header=BB54_3 Depth=1
Ltmp604:
	leaq	L_.str.4(%rip), %rsi
	leaq	-624(%rbp), %rdi
	leaq	-480(%rbp), %rdx
	callq	__ZNSt3__1plIcNS_11char_traitsIcEENS_9allocatorIcEEEENS_12basic_stringIT_T0_T1_EEPKS6_RKS9_
Ltmp605:
	jmp	LBB54_66
LBB54_66:                               ##   in Loop: Header=BB54_3 Depth=1
Ltmp606:
	leaq	-88(%rbp), %rdi
	leaq	-624(%rbp), %rsi
	callq	__ZNSt3__112basic_stringIcNS_11char_traitsIcEENS_9allocatorIcEEEpLERKS5_
Ltmp607:
	jmp	LBB54_67
LBB54_67:                               ##   in Loop: Header=BB54_3 Depth=1
	leaq	-624(%rbp), %rdi
	callq	__ZNSt3__112basic_stringIcNS_11char_traitsIcEENS_9allocatorIcEEED1Ev
	jmp	LBB54_100
LBB54_68:                               ##   in Loop: Header=BB54_3 Depth=1
Ltmp608:
                                        ## kill: def $edx killed $edx killed $rdx
	movq	%rax, -96(%rbp)
	movl	%edx, -100(%rbp)
	leaq	-624(%rbp), %rdi
	callq	__ZNSt3__112basic_stringIcNS_11char_traitsIcEENS_9allocatorIcEEED1Ev
	jmp	LBB54_101
LBB54_69:                               ##   in Loop: Header=BB54_3 Depth=1
	movslq	-132(%rbp), %rsi
	leaq	-64(%rbp), %rdi
	callq	__ZNSt3__16vectorINS_12basic_stringIcNS_11char_traitsIcEENS_9allocatorIcEEEENS4_IS6_EEEixEm
Ltmp570:
	leaq	-672(%rbp), %rdi
	movq	%rax, %rsi
	callq	__ZNSt3__112basic_stringIcNS_11char_traitsIcEENS_9allocatorIcEEEC1ERKS5_
Ltmp571:
	jmp	LBB54_70
LBB54_70:                               ##   in Loop: Header=BB54_3 Depth=1
Ltmp572:
	leaq	L_.str.44(%rip), %rsi
	leaq	-696(%rbp), %rdi
	callq	__ZNSt3__112basic_stringIcNS_11char_traitsIcEENS_9allocatorIcEEEC1IDnEEPKc
Ltmp573:
	jmp	LBB54_71
LBB54_71:                               ##   in Loop: Header=BB54_3 Depth=1
Ltmp575:
	leaq	-648(%rbp), %rdi
	leaq	-672(%rbp), %rsi
	leaq	-696(%rbp), %rdx
	callq	__Z8Get_DataNSt3__112basic_stringIcNS_11char_traitsIcEENS_9allocatorIcEEEES5_
Ltmp576:
	jmp	LBB54_72
LBB54_72:                               ##   in Loop: Header=BB54_3 Depth=1
	leaq	-128(%rbp), %rdi
	leaq	-648(%rbp), %rax
	movq	%rax, %rsi
	movq	%rax, -1296(%rbp)       ## 8-byte Spill
	callq	__ZNSt3__112basic_stringIcNS_11char_traitsIcEENS_9allocatorIcEEEaSEOS5_
	movq	-1296(%rbp), %rdi       ## 8-byte Reload
	movq	%rax, -1304(%rbp)       ## 8-byte Spill
	callq	__ZNSt3__112basic_stringIcNS_11char_traitsIcEENS_9allocatorIcEEED1Ev
	leaq	-696(%rbp), %rdi
	callq	__ZNSt3__112basic_stringIcNS_11char_traitsIcEENS_9allocatorIcEEED1Ev
	leaq	-672(%rbp), %rdi
	callq	__ZNSt3__112basic_stringIcNS_11char_traitsIcEENS_9allocatorIcEEED1Ev
	leaq	-432(%rbp), %rdi
	callq	__ZNKSt3__112basic_stringIcNS_11char_traitsIcEENS_9allocatorIcEEE5c_strEv
Ltmp578:
	movq	%rax, %rdi
	callq	_system
Ltmp579:
	jmp	LBB54_73
LBB54_73:                               ##   in Loop: Header=BB54_3 Depth=1
Ltmp580:
	leaq	-128(%rbp), %rdi
	leaq	-576(%rbp), %rsi
	movl	$32, %edx
	callq	__Z5splitRKNSt3__112basic_stringIcNS_11char_traitsIcEENS_9allocatorIcEEEERNS_6vectorIS5_NS3_IS5_EEEEc
Ltmp581:
	jmp	LBB54_74
LBB54_74:                               ##   in Loop: Header=BB54_3 Depth=1
	movl	$0, -700(%rbp)
LBB54_75:                               ##   Parent Loop BB54_3 Depth=1
                                        ## =>  This Inner Loop Header: Depth=2
	movslq	-700(%rbp), %rax
	leaq	-576(%rbp), %rdi
	movq	%rax, -1312(%rbp)       ## 8-byte Spill
	callq	__ZNKSt3__16vectorINS_12basic_stringIcNS_11char_traitsIcEENS_9allocatorIcEEEENS4_IS6_EEE4sizeEv
	movq	-1312(%rbp), %rcx       ## 8-byte Reload
	cmpq	%rax, %rcx
	jae	LBB54_98
## %bb.76:                              ##   in Loop: Header=BB54_75 Depth=2
	movslq	-700(%rbp), %rsi
	leaq	-576(%rbp), %rdi
	callq	__ZNSt3__16vectorINS_12basic_stringIcNS_11char_traitsIcEENS_9allocatorIcEEEENS4_IS6_EEEixEm
	movq	%rax, %rdi
	callq	__ZNKSt3__112basic_stringIcNS_11char_traitsIcEENS_9allocatorIcEEE5c_strEv
Ltmp582:
	leaq	L_.str.4(%rip), %rsi
	movq	%rax, %rdi
	callq	_strcmp
Ltmp583:
	movl	%eax, -1316(%rbp)       ## 4-byte Spill
	jmp	LBB54_77
LBB54_77:                               ##   in Loop: Header=BB54_75 Depth=2
	movl	-1316(%rbp), %eax       ## 4-byte Reload
	cmpl	$0, %eax
	je	LBB54_96
## %bb.78:                              ##   in Loop: Header=BB54_75 Depth=2
	movslq	-700(%rbp), %rsi
	leaq	-576(%rbp), %rdi
	callq	__ZNSt3__16vectorINS_12basic_stringIcNS_11char_traitsIcEENS_9allocatorIcEEEENS4_IS6_EEEixEm
	movq	%rax, %rdi
	callq	__ZNKSt3__112basic_stringIcNS_11char_traitsIcEENS_9allocatorIcEEE5c_strEv
Ltmp584:
	leaq	L_.str.3(%rip), %rsi
	movq	%rax, %rdi
	callq	_strcmp
Ltmp585:
	movl	%eax, -1320(%rbp)       ## 4-byte Spill
	jmp	LBB54_79
LBB54_79:                               ##   in Loop: Header=BB54_75 Depth=2
	movl	-1320(%rbp), %eax       ## 4-byte Reload
	cmpl	$0, %eax
	je	LBB54_96
## %bb.80:                              ##   in Loop: Header=BB54_75 Depth=2
	movslq	-132(%rbp), %rsi
	leaq	-64(%rbp), %rdi
	callq	__ZNSt3__16vectorINS_12basic_stringIcNS_11char_traitsIcEENS_9allocatorIcEEEENS4_IS6_EEEixEm
Ltmp586:
	leaq	-800(%rbp), %rdi
	movq	%rax, %rsi
	callq	__ZNSt3__112basic_stringIcNS_11char_traitsIcEENS_9allocatorIcEEEC1ERKS5_
Ltmp587:
	jmp	LBB54_81
LBB54_81:                               ##   in Loop: Header=BB54_75 Depth=2
Ltmp588:
	leaq	-776(%rbp), %rdi
	leaq	-800(%rbp), %rsi
	callq	__Z2ASNSt3__112basic_stringIcNS_11char_traitsIcEENS_9allocatorIcEEEE
Ltmp589:
	jmp	LBB54_82
LBB54_82:                               ##   in Loop: Header=BB54_75 Depth=2
Ltmp591:
	leaq	L_.str.4(%rip), %rsi
	leaq	-752(%rbp), %rdi
	leaq	-776(%rbp), %rdx
	callq	__ZNSt3__1plIcNS_11char_traitsIcEENS_9allocatorIcEEEENS_12basic_stringIT_T0_T1_EEPKS6_OS9_
Ltmp592:
	jmp	LBB54_83
LBB54_83:                               ##   in Loop: Header=BB54_75 Depth=2
	movslq	-700(%rbp), %rsi
	leaq	-576(%rbp), %rdi
	callq	__ZNSt3__16vectorINS_12basic_stringIcNS_11char_traitsIcEENS_9allocatorIcEEEENS4_IS6_EEEixEm
Ltmp594:
	leaq	-728(%rbp), %rdi
	leaq	-752(%rbp), %rsi
	movq	%rax, %rdx
	callq	__ZNSt3__1plIcNS_11char_traitsIcEENS_9allocatorIcEEEENS_12basic_stringIT_T0_T1_EEOS9_RKS9_
Ltmp595:
	jmp	LBB54_84
LBB54_84:                               ##   in Loop: Header=BB54_75 Depth=2
Ltmp597:
	leaq	-88(%rbp), %rdi
	leaq	-728(%rbp), %rsi
	callq	__ZNSt3__112basic_stringIcNS_11char_traitsIcEENS_9allocatorIcEEEpLERKS5_
Ltmp598:
	jmp	LBB54_85
LBB54_85:                               ##   in Loop: Header=BB54_75 Depth=2
	leaq	-728(%rbp), %rdi
	callq	__ZNSt3__112basic_stringIcNS_11char_traitsIcEENS_9allocatorIcEEED1Ev
	leaq	-752(%rbp), %rdi
	callq	__ZNSt3__112basic_stringIcNS_11char_traitsIcEENS_9allocatorIcEEED1Ev
	leaq	-776(%rbp), %rdi
	callq	__ZNSt3__112basic_stringIcNS_11char_traitsIcEENS_9allocatorIcEEED1Ev
	leaq	-800(%rbp), %rdi
	callq	__ZNSt3__112basic_stringIcNS_11char_traitsIcEENS_9allocatorIcEEED1Ev
	jmp	LBB54_96
LBB54_86:                               ##   in Loop: Header=BB54_3 Depth=1
Ltmp574:
                                        ## kill: def $edx killed $edx killed $rdx
	movq	%rax, -96(%rbp)
	movl	%edx, -100(%rbp)
	jmp	LBB54_88
LBB54_87:                               ##   in Loop: Header=BB54_3 Depth=1
Ltmp577:
                                        ## kill: def $edx killed $edx killed $rdx
	movq	%rax, -96(%rbp)
	movl	%edx, -100(%rbp)
	leaq	-696(%rbp), %rdi
	callq	__ZNSt3__112basic_stringIcNS_11char_traitsIcEENS_9allocatorIcEEED1Ev
LBB54_88:                               ##   in Loop: Header=BB54_3 Depth=1
	leaq	-672(%rbp), %rdi
	callq	__ZNSt3__112basic_stringIcNS_11char_traitsIcEENS_9allocatorIcEEED1Ev
	jmp	LBB54_101
LBB54_89:                               ##   in Loop: Header=BB54_3 Depth=1
Ltmp590:
                                        ## kill: def $edx killed $edx killed $rdx
	movq	%rax, -96(%rbp)
	movl	%edx, -100(%rbp)
	jmp	LBB54_95
LBB54_90:                               ##   in Loop: Header=BB54_3 Depth=1
Ltmp593:
                                        ## kill: def $edx killed $edx killed $rdx
	movq	%rax, -96(%rbp)
	movl	%edx, -100(%rbp)
	jmp	LBB54_94
LBB54_91:                               ##   in Loop: Header=BB54_3 Depth=1
Ltmp596:
                                        ## kill: def $edx killed $edx killed $rdx
	movq	%rax, -96(%rbp)
	movl	%edx, -100(%rbp)
	jmp	LBB54_93
LBB54_92:                               ##   in Loop: Header=BB54_3 Depth=1
Ltmp599:
                                        ## kill: def $edx killed $edx killed $rdx
	movq	%rax, -96(%rbp)
	movl	%edx, -100(%rbp)
	leaq	-728(%rbp), %rdi
	callq	__ZNSt3__112basic_stringIcNS_11char_traitsIcEENS_9allocatorIcEEED1Ev
LBB54_93:                               ##   in Loop: Header=BB54_3 Depth=1
	leaq	-752(%rbp), %rdi
	callq	__ZNSt3__112basic_stringIcNS_11char_traitsIcEENS_9allocatorIcEEED1Ev
LBB54_94:                               ##   in Loop: Header=BB54_3 Depth=1
	leaq	-776(%rbp), %rdi
	callq	__ZNSt3__112basic_stringIcNS_11char_traitsIcEENS_9allocatorIcEEED1Ev
LBB54_95:                               ##   in Loop: Header=BB54_3 Depth=1
	leaq	-800(%rbp), %rdi
	callq	__ZNSt3__112basic_stringIcNS_11char_traitsIcEENS_9allocatorIcEEED1Ev
	jmp	LBB54_101
LBB54_96:                               ##   in Loop: Header=BB54_75 Depth=2
	jmp	LBB54_97
LBB54_97:                               ##   in Loop: Header=BB54_75 Depth=2
	movl	-700(%rbp), %eax
	addl	$1, %eax
	movl	%eax, -700(%rbp)
	jmp	LBB54_75
LBB54_98:                               ##   in Loop: Header=BB54_3 Depth=1
	jmp	LBB54_100
LBB54_99:                               ##   in Loop: Header=BB54_3 Depth=1
	jmp	LBB54_100
LBB54_100:                              ##   in Loop: Header=BB54_3 Depth=1
	leaq	-576(%rbp), %rdi
	callq	__ZNSt3__16vectorINS_12basic_stringIcNS_11char_traitsIcEENS_9allocatorIcEEEENS4_IS6_EEED1Ev
	leaq	-552(%rbp), %rdi
	callq	__ZNSt3__112basic_stringIcNS_11char_traitsIcEENS_9allocatorIcEEED1Ev
	leaq	-480(%rbp), %rdi
	callq	__ZNSt3__112basic_stringIcNS_11char_traitsIcEENS_9allocatorIcEEED1Ev
	leaq	-432(%rbp), %rdi
	callq	__ZNSt3__112basic_stringIcNS_11char_traitsIcEENS_9allocatorIcEEED1Ev
	jmp	LBB54_107
LBB54_101:                              ##   in Loop: Header=BB54_3 Depth=1
	leaq	-576(%rbp), %rdi
	callq	__ZNSt3__16vectorINS_12basic_stringIcNS_11char_traitsIcEENS_9allocatorIcEEEENS4_IS6_EEED1Ev
	leaq	-552(%rbp), %rdi
	callq	__ZNSt3__112basic_stringIcNS_11char_traitsIcEENS_9allocatorIcEEED1Ev
LBB54_102:                              ##   in Loop: Header=BB54_3 Depth=1
	leaq	-480(%rbp), %rdi
	callq	__ZNSt3__112basic_stringIcNS_11char_traitsIcEENS_9allocatorIcEEED1Ev
LBB54_103:                              ##   in Loop: Header=BB54_3 Depth=1
	leaq	-432(%rbp), %rdi
	callq	__ZNSt3__112basic_stringIcNS_11char_traitsIcEENS_9allocatorIcEEED1Ev
LBB54_104:                              ##   in Loop: Header=BB54_3 Depth=1
	movl	-100(%rbp), %eax
	movl	$1, %ecx
	cmpl	%ecx, %eax
	jne	LBB54_109
## %bb.105:                             ##   in Loop: Header=BB54_3 Depth=1
	movq	-96(%rbp), %rdi
	callq	___cxa_begin_catch
	movq	%rax, -808(%rbp)
Ltmp621:
	callq	___cxa_end_catch
Ltmp622:
	jmp	LBB54_106
LBB54_106:                              ##   in Loop: Header=BB54_3 Depth=1
	jmp	LBB54_107
LBB54_107:                              ##   in Loop: Header=BB54_3 Depth=1
	leaq	-280(%rbp), %rdi
	callq	__ZNSt3__112basic_stringIcNS_11char_traitsIcEENS_9allocatorIcEEED1Ev
	leaq	-160(%rbp), %rdi
	callq	__ZNSt3__112basic_stringIcNS_11char_traitsIcEENS_9allocatorIcEEED1Ev
	jmp	LBB54_111
LBB54_108:
Ltmp623:
                                        ## kill: def $edx killed $edx killed $rdx
	movq	%rax, -96(%rbp)
	movl	%edx, -100(%rbp)
LBB54_109:
	leaq	-280(%rbp), %rdi
	callq	__ZNSt3__112basic_stringIcNS_11char_traitsIcEENS_9allocatorIcEEED1Ev
LBB54_110:
	leaq	-160(%rbp), %rdi
	callq	__ZNSt3__112basic_stringIcNS_11char_traitsIcEENS_9allocatorIcEEED1Ev
	jmp	LBB54_167
LBB54_111:                              ##   in Loop: Header=BB54_3 Depth=1
	jmp	LBB54_112
LBB54_112:                              ##   in Loop: Header=BB54_3 Depth=1
	movl	-132(%rbp), %eax
	addl	$1, %eax
	movl	%eax, -132(%rbp)
	jmp	LBB54_3
LBB54_113:
Ltmp441:
	leaq	-1088(%rbp), %rdi
	movl	$24, %esi
	callq	__ZNSt3__118basic_stringstreamIcNS_11char_traitsIcEENS_9allocatorIcEEEC1Ej
Ltmp442:
	jmp	LBB54_114
LBB54_114:
	leaq	-1072(%rbp), %rdi
Ltmp443:
	leaq	L_.str.45(%rip), %rsi
	callq	__ZNSt3__1lsINS_11char_traitsIcEEEERNS_13basic_ostreamIcT_EES6_PKc
Ltmp444:
	movq	%rax, -1328(%rbp)       ## 8-byte Spill
	jmp	LBB54_115
LBB54_115:
	movq	-16(%rbp), %rax
	addq	$48, %rax
Ltmp445:
	movq	-1328(%rbp), %rdi       ## 8-byte Reload
	movq	%rax, %rsi
	callq	__ZNSt3__1lsIcNS_11char_traitsIcEENS_9allocatorIcEEEERNS_13basic_ostreamIT_T0_EES9_RKNS_12basic_stringIS6_S7_T1_EE
Ltmp446:
	movq	%rax, -1336(%rbp)       ## 8-byte Spill
	jmp	LBB54_116
LBB54_116:
	movq	-24(%rbp), %rax
	addq	$48, %rax
Ltmp447:
	movq	-1336(%rbp), %rdi       ## 8-byte Reload
	movq	%rax, %rsi
	callq	__ZNSt3__1lsIcNS_11char_traitsIcEENS_9allocatorIcEEEERNS_13basic_ostreamIT_T0_EES9_RKNS_12basic_stringIS6_S7_T1_EE
Ltmp448:
	movq	%rax, -1344(%rbp)       ## 8-byte Spill
	jmp	LBB54_117
LBB54_117:
Ltmp449:
	leaq	L_.str.46(%rip), %rsi
	movq	-1344(%rbp), %rdi       ## 8-byte Reload
	callq	__ZNSt3__1lsINS_11char_traitsIcEEEERNS_13basic_ostreamIcT_EES6_PKc
Ltmp450:
	movq	%rax, -1352(%rbp)       ## 8-byte Spill
	jmp	LBB54_118
LBB54_118:
Ltmp451:
	movq	-1352(%rbp), %rdi       ## 8-byte Reload
	movq	-1208(%rbp), %rsi       ## 8-byte Reload
	callq	__ZNSt3__1lsIcNS_11char_traitsIcEENS_9allocatorIcEEEERNS_13basic_ostreamIT_T0_EES9_RKNS_12basic_stringIS6_S7_T1_EE
Ltmp452:
	movq	%rax, -1360(%rbp)       ## 8-byte Spill
	jmp	LBB54_119
LBB54_119:
Ltmp453:
	leaq	-88(%rbp), %rsi
	movq	-1360(%rbp), %rdi       ## 8-byte Reload
	callq	__ZNSt3__1lsIcNS_11char_traitsIcEENS_9allocatorIcEEEERNS_13basic_ostreamIT_T0_EES9_RKNS_12basic_stringIS6_S7_T1_EE
Ltmp454:
	jmp	LBB54_120
LBB54_120:
	movl	-36(%rbp), %eax
	testl	%eax, %eax
	movl	%eax, -1364(%rbp)       ## 4-byte Spill
	je	LBB54_122
	jmp	LBB54_171
LBB54_171:
	movl	-1364(%rbp), %eax       ## 4-byte Reload
	subl	$1, %eax
	je	LBB54_126
	jmp	LBB54_172
LBB54_172:
	movl	-1364(%rbp), %eax       ## 4-byte Reload
	subl	$2, %eax
	je	LBB54_131
	jmp	LBB54_132
LBB54_121:
Ltmp502:
                                        ## kill: def $edx killed $edx killed $rdx
	movq	%rax, -96(%rbp)
	movl	%edx, -100(%rbp)
	jmp	LBB54_166
LBB54_122:
Ltmp462:
	leaq	-1120(%rbp), %rdi
	leaq	-1088(%rbp), %rsi
	callq	__ZNKSt3__118basic_stringstreamIcNS_11char_traitsIcEENS_9allocatorIcEEE3strEv
Ltmp463:
	jmp	LBB54_123
LBB54_123:
	leaq	-1120(%rbp), %rdi
	callq	__ZNKSt3__112basic_stringIcNS_11char_traitsIcEENS_9allocatorIcEEE5c_strEv
Ltmp464:
	movq	%rax, %rdi
	callq	_system
Ltmp465:
	movl	%eax, -1368(%rbp)       ## 4-byte Spill
	jmp	LBB54_124
LBB54_124:
	movl	-1368(%rbp), %eax       ## 4-byte Reload
	movl	%eax, -1092(%rbp)
	leaq	-1120(%rbp), %rdi
	callq	__ZNSt3__112basic_stringIcNS_11char_traitsIcEENS_9allocatorIcEEED1Ev
	jmp	LBB54_133
LBB54_125:
Ltmp466:
                                        ## kill: def $edx killed $edx killed $rdx
	movq	%rax, -96(%rbp)
	movl	%edx, -100(%rbp)
	leaq	-1120(%rbp), %rdi
	callq	__ZNSt3__112basic_stringIcNS_11char_traitsIcEENS_9allocatorIcEEED1Ev
	jmp	LBB54_166
LBB54_126:
	leaq	-1072(%rbp), %rdi
Ltmp455:
	leaq	L_.str.47(%rip), %rsi
	callq	__ZNSt3__1lsINS_11char_traitsIcEEEERNS_13basic_ostreamIcT_EES6_PKc
Ltmp456:
	jmp	LBB54_127
LBB54_127:
Ltmp457:
	leaq	-1144(%rbp), %rdi
	leaq	-1088(%rbp), %rsi
	callq	__ZNKSt3__118basic_stringstreamIcNS_11char_traitsIcEENS_9allocatorIcEEE3strEv
Ltmp458:
	jmp	LBB54_128
LBB54_128:
	leaq	-1144(%rbp), %rdi
	callq	__ZNKSt3__112basic_stringIcNS_11char_traitsIcEENS_9allocatorIcEEE5c_strEv
Ltmp459:
	movq	%rax, %rdi
	callq	_system
Ltmp460:
	movl	%eax, -1372(%rbp)       ## 4-byte Spill
	jmp	LBB54_129
LBB54_129:
	movl	-1372(%rbp), %eax       ## 4-byte Reload
	movl	%eax, -1092(%rbp)
	leaq	-1144(%rbp), %rdi
	callq	__ZNSt3__112basic_stringIcNS_11char_traitsIcEENS_9allocatorIcEEED1Ev
	jmp	LBB54_133
LBB54_130:
Ltmp461:
                                        ## kill: def $edx killed $edx killed $rdx
	movq	%rax, -96(%rbp)
	movl	%edx, -100(%rbp)
	leaq	-1144(%rbp), %rdi
	callq	__ZNSt3__112basic_stringIcNS_11char_traitsIcEENS_9allocatorIcEEED1Ev
	jmp	LBB54_166
LBB54_131:
	jmp	LBB54_133
LBB54_132:
	jmp	LBB54_133
LBB54_133:
	cmpl	$0, -1092(%rbp)
	jne	LBB54_147
## %bb.134:
Ltmp478:
	movq	__ZNSt3__14coutE@GOTPCREL(%rip), %rdi
	leaq	L_.str.20(%rip), %rsi
	callq	__ZNSt3__1lsINS_11char_traitsIcEEEERNS_13basic_ostreamIcT_EES6_PKc
Ltmp479:
	movq	%rax, -1384(%rbp)       ## 8-byte Spill
	jmp	LBB54_135
LBB54_135:
Ltmp480:
	leaq	L_.str.48(%rip), %rsi
	movq	-1384(%rbp), %rdi       ## 8-byte Reload
	callq	__ZNSt3__1lsINS_11char_traitsIcEEEERNS_13basic_ostreamIcT_EES6_PKc
Ltmp481:
	movq	%rax, -1392(%rbp)       ## 8-byte Spill
	jmp	LBB54_136
LBB54_136:
Ltmp482:
	leaq	L_.str.24(%rip), %rsi
	movq	-1392(%rbp), %rdi       ## 8-byte Reload
	callq	__ZNSt3__1lsINS_11char_traitsIcEEEERNS_13basic_ostreamIcT_EES6_PKc
Ltmp483:
	movq	%rax, -1400(%rbp)       ## 8-byte Spill
	jmp	LBB54_137
LBB54_137:
Ltmp484:
	movq	-1400(%rbp), %rdi       ## 8-byte Reload
	movq	-1208(%rbp), %rsi       ## 8-byte Reload
	callq	__ZNSt3__1lsIcNS_11char_traitsIcEENS_9allocatorIcEEEERNS_13basic_ostreamIT_T0_EES9_RKNS_12basic_stringIS6_S7_T1_EE
Ltmp485:
	movq	%rax, -1408(%rbp)       ## 8-byte Spill
	jmp	LBB54_138
LBB54_138:
Ltmp486:
	leaq	L_.str.22(%rip), %rsi
	movq	-1408(%rbp), %rdi       ## 8-byte Reload
	callq	__ZNSt3__1lsINS_11char_traitsIcEEEERNS_13basic_ostreamIcT_EES6_PKc
Ltmp487:
	movq	%rax, -1416(%rbp)       ## 8-byte Spill
	jmp	LBB54_139
LBB54_139:
Ltmp488:
	leaq	L_.str.13(%rip), %rsi
	movq	-1416(%rbp), %rdi       ## 8-byte Reload
	callq	__ZNSt3__1lsINS_11char_traitsIcEEEERNS_13basic_ostreamIcT_EES6_PKc
Ltmp489:
	movq	%rax, -1424(%rbp)       ## 8-byte Spill
	jmp	LBB54_140
LBB54_140:
Ltmp490:
	leaq	L_.str.20(%rip), %rsi
	movq	-1424(%rbp), %rdi       ## 8-byte Reload
	callq	__ZNSt3__1lsINS_11char_traitsIcEEEERNS_13basic_ostreamIcT_EES6_PKc
Ltmp491:
	movq	%rax, -1432(%rbp)       ## 8-byte Spill
	jmp	LBB54_141
LBB54_141:
Ltmp492:
	leaq	L_.str.32(%rip), %rsi
	movq	-1432(%rbp), %rdi       ## 8-byte Reload
	callq	__ZNSt3__1lsINS_11char_traitsIcEEEERNS_13basic_ostreamIcT_EES6_PKc
Ltmp493:
	movq	%rax, -1440(%rbp)       ## 8-byte Spill
	jmp	LBB54_142
LBB54_142:
Ltmp494:
	leaq	L_.str.22(%rip), %rsi
	movq	-1440(%rbp), %rdi       ## 8-byte Reload
	callq	__ZNSt3__1lsINS_11char_traitsIcEEEERNS_13basic_ostreamIcT_EES6_PKc
Ltmp495:
	movq	%rax, -1448(%rbp)       ## 8-byte Spill
	jmp	LBB54_143
LBB54_143:
Ltmp496:
	leaq	L_.str.33(%rip), %rsi
	movq	-1448(%rbp), %rdi       ## 8-byte Reload
	callq	__ZNSt3__1lsINS_11char_traitsIcEEEERNS_13basic_ostreamIcT_EES6_PKc
Ltmp497:
	movq	%rax, -1456(%rbp)       ## 8-byte Spill
	jmp	LBB54_144
LBB54_144:
Ltmp498:
	leaq	L_.str.19(%rip), %rsi
	movq	-1456(%rbp), %rdi       ## 8-byte Reload
	callq	__ZNSt3__1lsINS_11char_traitsIcEEEERNS_13basic_ostreamIcT_EES6_PKc
Ltmp499:
	movq	%rax, -1464(%rbp)       ## 8-byte Spill
	jmp	LBB54_145
LBB54_145:
Ltmp500:
	leaq	__ZNSt3__1L4endlIcNS_11char_traitsIcEEEERNS_13basic_ostreamIT_T0_EES7_(%rip), %rsi
	movq	-1464(%rbp), %rdi       ## 8-byte Reload
	callq	__ZNSt3__113basic_ostreamIcNS_11char_traitsIcEEElsEPFRS3_S4_E
Ltmp501:
	jmp	LBB54_146
LBB54_146:
	jmp	LBB54_154
LBB54_147:
Ltmp467:
	leaq	-1168(%rbp), %rdi
	leaq	-1088(%rbp), %rsi
	callq	__ZNKSt3__118basic_stringstreamIcNS_11char_traitsIcEENS_9allocatorIcEEE3strEv
Ltmp468:
	jmp	LBB54_148
LBB54_148:
Ltmp469:
	movq	__ZNSt3__14coutE@GOTPCREL(%rip), %rdi
	leaq	-1168(%rbp), %rsi
	callq	__ZNSt3__1lsIcNS_11char_traitsIcEENS_9allocatorIcEEEERNS_13basic_ostreamIT_T0_EES9_RKNS_12basic_stringIS6_S7_T1_EE
Ltmp470:
	movq	%rax, -1472(%rbp)       ## 8-byte Spill
	jmp	LBB54_149
LBB54_149:
Ltmp471:
	leaq	L_.str.37(%rip), %rsi
	movq	-1472(%rbp), %rdi       ## 8-byte Reload
	callq	__ZNSt3__1lsINS_11char_traitsIcEEEERNS_13basic_ostreamIcT_EES6_PKc
Ltmp472:
	movq	%rax, -1480(%rbp)       ## 8-byte Spill
	jmp	LBB54_150
LBB54_150:
	movl	-1092(%rbp), %eax
	movl	%eax, %ecx
	sarl	$31, %ecx
	shrl	$24, %ecx
	addl	%ecx, %eax
	sarl	$8, %eax
Ltmp473:
	movq	-1480(%rbp), %rdi       ## 8-byte Reload
	movl	%eax, %esi
	callq	__ZNSt3__113basic_ostreamIcNS_11char_traitsIcEEElsEi
Ltmp474:
	movq	%rax, -1488(%rbp)       ## 8-byte Spill
	jmp	LBB54_151
LBB54_151:
Ltmp475:
	leaq	__ZNSt3__1L4endlIcNS_11char_traitsIcEEEERNS_13basic_ostreamIT_T0_EES7_(%rip), %rsi
	movq	-1488(%rbp), %rdi       ## 8-byte Reload
	callq	__ZNSt3__113basic_ostreamIcNS_11char_traitsIcEEElsEPFRS3_S4_E
Ltmp476:
	jmp	LBB54_152
LBB54_152:
	leaq	-1168(%rbp), %rdi
	callq	__ZNSt3__112basic_stringIcNS_11char_traitsIcEENS_9allocatorIcEEED1Ev
	jmp	LBB54_154
LBB54_153:
Ltmp477:
                                        ## kill: def $edx killed $edx killed $rdx
	movq	%rax, -96(%rbp)
	movl	%edx, -100(%rbp)
	leaq	-1168(%rbp), %rdi
	callq	__ZNSt3__112basic_stringIcNS_11char_traitsIcEENS_9allocatorIcEEED1Ev
	jmp	LBB54_166
LBB54_154:
	leaq	-1192(%rbp), %rax
	movq	%rax, %rdi
	movq	%rax, -1496(%rbp)       ## 8-byte Spill
	callq	__ZNSt3__16vectorINS_12basic_stringIcNS_11char_traitsIcEENS_9allocatorIcEEEENS4_IS6_EEEC1Ev
	movq	-16(%rbp), %rax
	addq	$48, %rax
Ltmp503:
	movl	$32, %edx
	movq	%rax, %rdi
	movq	-1496(%rbp), %rsi       ## 8-byte Reload
	callq	__Z5splitRKNSt3__112basic_stringIcNS_11char_traitsIcEENS_9allocatorIcEEEERNS_6vectorIS5_NS3_IS5_EEEEc
Ltmp504:
	jmp	LBB54_155
LBB54_155:
	movl	$0, -1196(%rbp)
LBB54_156:                              ## =>This Inner Loop Header: Depth=1
	movslq	-1196(%rbp), %rax
	leaq	-1192(%rbp), %rdi
	movq	%rax, -1504(%rbp)       ## 8-byte Spill
	callq	__ZNKSt3__16vectorINS_12basic_stringIcNS_11char_traitsIcEENS_9allocatorIcEEEENS4_IS6_EEE4sizeEv
	movq	-1504(%rbp), %rcx       ## 8-byte Reload
	cmpq	%rax, %rcx
	jae	LBB54_165
## %bb.157:                             ##   in Loop: Header=BB54_156 Depth=1
	movslq	-1196(%rbp), %rsi
	leaq	-1192(%rbp), %rdi
	callq	__ZNSt3__16vectorINS_12basic_stringIcNS_11char_traitsIcEENS_9allocatorIcEEEENS4_IS6_EEEixEm
	movq	%rax, %rdi
	callq	__ZNKSt3__112basic_stringIcNS_11char_traitsIcEENS_9allocatorIcEEE5c_strEv
Ltmp505:
	leaq	L_.str.4(%rip), %rsi
	movq	%rax, %rdi
	callq	_strcmp
Ltmp506:
	movl	%eax, -1508(%rbp)       ## 4-byte Spill
	jmp	LBB54_158
LBB54_158:                              ##   in Loop: Header=BB54_156 Depth=1
	movl	-1508(%rbp), %eax       ## 4-byte Reload
	cmpl	$0, %eax
	jne	LBB54_161
## %bb.159:                             ##   in Loop: Header=BB54_156 Depth=1
	movslq	-1196(%rbp), %rsi
	leaq	-1192(%rbp), %rdi
	callq	__ZNSt3__16vectorINS_12basic_stringIcNS_11char_traitsIcEENS_9allocatorIcEEEENS4_IS6_EEEixEm
	movq	%rax, %rdi
	callq	__ZNKSt3__112basic_stringIcNS_11char_traitsIcEENS_9allocatorIcEEE5c_strEv
Ltmp507:
	leaq	L_.str.3(%rip), %rsi
	movq	%rax, %rdi
	callq	_strcmp
Ltmp508:
	movl	%eax, -1512(%rbp)       ## 4-byte Spill
	jmp	LBB54_160
LBB54_160:                              ##   in Loop: Header=BB54_156 Depth=1
	movl	-1512(%rbp), %eax       ## 4-byte Reload
	cmpl	$0, %eax
	je	LBB54_163
LBB54_161:                              ##   in Loop: Header=BB54_156 Depth=1
	jmp	LBB54_163
LBB54_162:
Ltmp509:
                                        ## kill: def $edx killed $edx killed $rdx
	movq	%rax, -96(%rbp)
	movl	%edx, -100(%rbp)
	leaq	-1192(%rbp), %rdi
	callq	__ZNSt3__16vectorINS_12basic_stringIcNS_11char_traitsIcEENS_9allocatorIcEEEENS4_IS6_EEED1Ev
	jmp	LBB54_166
LBB54_163:                              ##   in Loop: Header=BB54_156 Depth=1
	jmp	LBB54_164
LBB54_164:                              ##   in Loop: Header=BB54_156 Depth=1
	movl	-1196(%rbp), %eax
	addl	$1, %eax
	movl	%eax, -1196(%rbp)
	jmp	LBB54_156
LBB54_165:
	leaq	-1192(%rbp), %rdi
	callq	__ZNSt3__16vectorINS_12basic_stringIcNS_11char_traitsIcEENS_9allocatorIcEEEENS4_IS6_EEED1Ev
	leaq	-1088(%rbp), %rdi
	callq	__ZNSt3__118basic_stringstreamIcNS_11char_traitsIcEENS_9allocatorIcEEED1Ev
	leaq	-128(%rbp), %rdi
	callq	__ZNSt3__112basic_stringIcNS_11char_traitsIcEENS_9allocatorIcEEED1Ev
	leaq	-88(%rbp), %rdi
	callq	__ZNSt3__112basic_stringIcNS_11char_traitsIcEENS_9allocatorIcEEED1Ev
	leaq	-64(%rbp), %rdi
	callq	__ZNSt3__16vectorINS_12basic_stringIcNS_11char_traitsIcEENS_9allocatorIcEEEENS4_IS6_EEED1Ev
	jmp	LBB54_169
LBB54_166:
	leaq	-1088(%rbp), %rdi
	callq	__ZNSt3__118basic_stringstreamIcNS_11char_traitsIcEENS_9allocatorIcEEED1Ev
LBB54_167:
	leaq	-128(%rbp), %rdi
	callq	__ZNSt3__112basic_stringIcNS_11char_traitsIcEENS_9allocatorIcEEED1Ev
LBB54_168:
	leaq	-88(%rbp), %rdi
	callq	__ZNSt3__112basic_stringIcNS_11char_traitsIcEENS_9allocatorIcEEED1Ev
	leaq	-64(%rbp), %rdi
	callq	__ZNSt3__16vectorINS_12basic_stringIcNS_11char_traitsIcEENS_9allocatorIcEEEENS4_IS6_EEED1Ev
	jmp	LBB54_170
LBB54_169:
	movl	-4(%rbp), %eax
	addq	$1520, %rsp             ## imm = 0x5F0
	popq	%rbp
	retq
LBB54_170:
	movq	-96(%rbp), %rdi
	callq	__Unwind_Resume
	ud2
Lfunc_end15:
	.cfi_endproc
	.section	__TEXT,__gcc_except_tab
	.p2align	2
GCC_except_table54:
Lexception15:
	.byte	255                     ## @LPStart Encoding = omit
	.byte	155                     ## @TType Encoding = indirect pcrel sdata4
	.uleb128 Lttbase2-Lttbaseref2
Lttbaseref2:
	.byte	1                       ## Call site Encoding = uleb128
	.uleb128 Lcst_end15-Lcst_begin15
Lcst_begin15:
	.uleb128 Ltmp438-Lfunc_begin15  ## >> Call Site 1 <<
	.uleb128 Ltmp439-Ltmp438        ##   Call between Ltmp438 and Ltmp439
	.uleb128 Ltmp440-Lfunc_begin15  ##     jumps to Ltmp440
	.byte	0                       ##   On action: cleanup
	.uleb128 Ltmp510-Lfunc_begin15  ## >> Call Site 2 <<
	.uleb128 Ltmp511-Ltmp510        ##   Call between Ltmp510 and Ltmp511
	.uleb128 Ltmp512-Lfunc_begin15  ##     jumps to Ltmp512
	.byte	0                       ##   On action: cleanup
	.uleb128 Ltmp513-Lfunc_begin15  ## >> Call Site 3 <<
	.uleb128 Ltmp514-Ltmp513        ##   Call between Ltmp513 and Ltmp514
	.uleb128 Ltmp530-Lfunc_begin15  ##     jumps to Ltmp530
	.byte	0                       ##   On action: cleanup
	.uleb128 Ltmp515-Lfunc_begin15  ## >> Call Site 4 <<
	.uleb128 Ltmp516-Ltmp515        ##   Call between Ltmp515 and Ltmp516
	.uleb128 Ltmp517-Lfunc_begin15  ##     jumps to Ltmp517
	.byte	0                       ##   On action: cleanup
	.uleb128 Ltmp518-Lfunc_begin15  ## >> Call Site 5 <<
	.uleb128 Ltmp519-Ltmp518        ##   Call between Ltmp518 and Ltmp519
	.uleb128 Ltmp520-Lfunc_begin15  ##     jumps to Ltmp520
	.byte	0                       ##   On action: cleanup
	.uleb128 Ltmp526-Lfunc_begin15  ## >> Call Site 6 <<
	.uleb128 Ltmp522-Ltmp526        ##   Call between Ltmp526 and Ltmp522
	.uleb128 Ltmp530-Lfunc_begin15  ##     jumps to Ltmp530
	.byte	0                       ##   On action: cleanup
	.uleb128 Ltmp523-Lfunc_begin15  ## >> Call Site 7 <<
	.uleb128 Ltmp524-Ltmp523        ##   Call between Ltmp523 and Ltmp524
	.uleb128 Ltmp525-Lfunc_begin15  ##     jumps to Ltmp525
	.byte	0                       ##   On action: cleanup
	.uleb128 Ltmp528-Lfunc_begin15  ## >> Call Site 8 <<
	.uleb128 Ltmp529-Ltmp528        ##   Call between Ltmp528 and Ltmp529
	.uleb128 Ltmp530-Lfunc_begin15  ##     jumps to Ltmp530
	.byte	0                       ##   On action: cleanup
	.uleb128 Ltmp531-Lfunc_begin15  ## >> Call Site 9 <<
	.uleb128 Ltmp532-Ltmp531        ##   Call between Ltmp531 and Ltmp532
	.uleb128 Ltmp533-Lfunc_begin15  ##     jumps to Ltmp533
	.byte	0                       ##   On action: cleanup
	.uleb128 Ltmp534-Lfunc_begin15  ## >> Call Site 10 <<
	.uleb128 Ltmp535-Ltmp534        ##   Call between Ltmp534 and Ltmp535
	.uleb128 Ltmp536-Lfunc_begin15  ##     jumps to Ltmp536
	.byte	0                       ##   On action: cleanup
	.uleb128 Ltmp537-Lfunc_begin15  ## >> Call Site 11 <<
	.uleb128 Ltmp538-Ltmp537        ##   Call between Ltmp537 and Ltmp538
	.uleb128 Ltmp550-Lfunc_begin15  ##     jumps to Ltmp550
	.byte	3                       ##   On action: 2
	.uleb128 Ltmp539-Lfunc_begin15  ## >> Call Site 12 <<
	.uleb128 Ltmp540-Ltmp539        ##   Call between Ltmp539 and Ltmp540
	.uleb128 Ltmp541-Lfunc_begin15  ##     jumps to Ltmp541
	.byte	3                       ##   On action: 2
	.uleb128 Ltmp542-Lfunc_begin15  ## >> Call Site 13 <<
	.uleb128 Ltmp543-Ltmp542        ##   Call between Ltmp542 and Ltmp543
	.uleb128 Ltmp544-Lfunc_begin15  ##     jumps to Ltmp544
	.byte	3                       ##   On action: 2
	.uleb128 Ltmp545-Lfunc_begin15  ## >> Call Site 14 <<
	.uleb128 Ltmp546-Ltmp545        ##   Call between Ltmp545 and Ltmp546
	.uleb128 Ltmp547-Lfunc_begin15  ##     jumps to Ltmp547
	.byte	3                       ##   On action: 2
	.uleb128 Ltmp548-Lfunc_begin15  ## >> Call Site 15 <<
	.uleb128 Ltmp549-Ltmp548        ##   Call between Ltmp548 and Ltmp549
	.uleb128 Ltmp550-Lfunc_begin15  ##     jumps to Ltmp550
	.byte	3                       ##   On action: 2
	.uleb128 Ltmp551-Lfunc_begin15  ## >> Call Site 16 <<
	.uleb128 Ltmp552-Ltmp551        ##   Call between Ltmp551 and Ltmp552
	.uleb128 Ltmp553-Lfunc_begin15  ##     jumps to Ltmp553
	.byte	3                       ##   On action: 2
	.uleb128 Ltmp554-Lfunc_begin15  ## >> Call Site 17 <<
	.uleb128 Ltmp559-Ltmp554        ##   Call between Ltmp554 and Ltmp559
	.uleb128 Ltmp560-Lfunc_begin15  ##     jumps to Ltmp560
	.byte	3                       ##   On action: 2
	.uleb128 Ltmp561-Lfunc_begin15  ## >> Call Site 18 <<
	.uleb128 Ltmp562-Ltmp561        ##   Call between Ltmp561 and Ltmp562
	.uleb128 Ltmp563-Lfunc_begin15  ##     jumps to Ltmp563
	.byte	3                       ##   On action: 2
	.uleb128 Ltmp564-Lfunc_begin15  ## >> Call Site 19 <<
	.uleb128 Ltmp565-Ltmp564        ##   Call between Ltmp564 and Ltmp565
	.uleb128 Ltmp566-Lfunc_begin15  ##     jumps to Ltmp566
	.byte	3                       ##   On action: 2
	.uleb128 Ltmp567-Lfunc_begin15  ## >> Call Site 20 <<
	.uleb128 Ltmp568-Ltmp567        ##   Call between Ltmp567 and Ltmp568
	.uleb128 Ltmp569-Lfunc_begin15  ##     jumps to Ltmp569
	.byte	3                       ##   On action: 2
	.uleb128 Ltmp609-Lfunc_begin15  ## >> Call Site 21 <<
	.uleb128 Ltmp612-Ltmp609        ##   Call between Ltmp609 and Ltmp612
	.uleb128 Ltmp613-Lfunc_begin15  ##     jumps to Ltmp613
	.byte	3                       ##   On action: 2
	.uleb128 Ltmp614-Lfunc_begin15  ## >> Call Site 22 <<
	.uleb128 Ltmp619-Ltmp614        ##   Call between Ltmp614 and Ltmp619
	.uleb128 Ltmp620-Lfunc_begin15  ##     jumps to Ltmp620
	.byte	3                       ##   On action: 2
	.uleb128 Ltmp600-Lfunc_begin15  ## >> Call Site 23 <<
	.uleb128 Ltmp605-Ltmp600        ##   Call between Ltmp600 and Ltmp605
	.uleb128 Ltmp613-Lfunc_begin15  ##     jumps to Ltmp613
	.byte	3                       ##   On action: 2
	.uleb128 Ltmp606-Lfunc_begin15  ## >> Call Site 24 <<
	.uleb128 Ltmp607-Ltmp606        ##   Call between Ltmp606 and Ltmp607
	.uleb128 Ltmp608-Lfunc_begin15  ##     jumps to Ltmp608
	.byte	3                       ##   On action: 2
	.uleb128 Ltmp570-Lfunc_begin15  ## >> Call Site 25 <<
	.uleb128 Ltmp571-Ltmp570        ##   Call between Ltmp570 and Ltmp571
	.uleb128 Ltmp613-Lfunc_begin15  ##     jumps to Ltmp613
	.byte	3                       ##   On action: 2
	.uleb128 Ltmp572-Lfunc_begin15  ## >> Call Site 26 <<
	.uleb128 Ltmp573-Ltmp572        ##   Call between Ltmp572 and Ltmp573
	.uleb128 Ltmp574-Lfunc_begin15  ##     jumps to Ltmp574
	.byte	3                       ##   On action: 2
	.uleb128 Ltmp575-Lfunc_begin15  ## >> Call Site 27 <<
	.uleb128 Ltmp576-Ltmp575        ##   Call between Ltmp575 and Ltmp576
	.uleb128 Ltmp577-Lfunc_begin15  ##     jumps to Ltmp577
	.byte	3                       ##   On action: 2
	.uleb128 Ltmp578-Lfunc_begin15  ## >> Call Site 28 <<
	.uleb128 Ltmp587-Ltmp578        ##   Call between Ltmp578 and Ltmp587
	.uleb128 Ltmp613-Lfunc_begin15  ##     jumps to Ltmp613
	.byte	3                       ##   On action: 2
	.uleb128 Ltmp588-Lfunc_begin15  ## >> Call Site 29 <<
	.uleb128 Ltmp589-Ltmp588        ##   Call between Ltmp588 and Ltmp589
	.uleb128 Ltmp590-Lfunc_begin15  ##     jumps to Ltmp590
	.byte	3                       ##   On action: 2
	.uleb128 Ltmp591-Lfunc_begin15  ## >> Call Site 30 <<
	.uleb128 Ltmp592-Ltmp591        ##   Call between Ltmp591 and Ltmp592
	.uleb128 Ltmp593-Lfunc_begin15  ##     jumps to Ltmp593
	.byte	3                       ##   On action: 2
	.uleb128 Ltmp594-Lfunc_begin15  ## >> Call Site 31 <<
	.uleb128 Ltmp595-Ltmp594        ##   Call between Ltmp594 and Ltmp595
	.uleb128 Ltmp596-Lfunc_begin15  ##     jumps to Ltmp596
	.byte	3                       ##   On action: 2
	.uleb128 Ltmp597-Lfunc_begin15  ## >> Call Site 32 <<
	.uleb128 Ltmp598-Ltmp597        ##   Call between Ltmp597 and Ltmp598
	.uleb128 Ltmp599-Lfunc_begin15  ##     jumps to Ltmp599
	.byte	3                       ##   On action: 2
	.uleb128 Ltmp598-Lfunc_begin15  ## >> Call Site 33 <<
	.uleb128 Ltmp621-Ltmp598        ##   Call between Ltmp598 and Ltmp621
	.byte	0                       ##     has no landing pad
	.byte	0                       ##   On action: cleanup
	.uleb128 Ltmp621-Lfunc_begin15  ## >> Call Site 34 <<
